---
triple:          'arm64-apple-darwin'
binary-path:     file
relocations:
  - { offsetInCU: 0x130D4, offset: 0x130D4, size: 0x8, addend: 0x0, symName: __ZStL8__ioinit, symObjAddr: 0x8A718, symBinAddr: 0x100024000, symSize: 0x0 }
  - { offsetInCU: 0x14BC2, offset: 0x14BC2, size: 0x8, addend: 0x0, symName: __GLOBAL__sub_I_main.cpp, symObjAddr: 0x6A50, symBinAddr: 0x10000ACD0, symSize: 0x1C }
  - { offsetInCU: 0x14BEB, offset: 0x14BEB, size: 0x8, addend: 0x0, symName: __Z41__static_initialization_and_destruction_0ii, symObjAddr: 0x69F0, symBinAddr: 0x10000AC70, symSize: 0x60 }
  - { offsetInCU: 0x14BFA, offset: 0x14BFA, size: 0x8, addend: 0x0, symName: __ZNSt11__copy_moveILb0ELb1ESt26random_access_iterator_tagE8__copy_mIdEEPT_PKS3_S6_S4_, symObjAddr: 0x6498, symBinAddr: 0x10000AC0C, symSize: 0x64 }
  - { offsetInCU: 0x14C5B, offset: 0x14C5B, size: 0x8, addend: 0x0, symName: __ZSt14__copy_move_a2ILb0EPKdPdET1_T0_S4_S3_, symObjAddr: 0x646C, symBinAddr: 0x10000ABE0, symSize: 0x2C }
  - { offsetInCU: 0x14CBF, offset: 0x14CBF, size: 0x8, addend: 0x0, symName: __ZSt19__relocate_object_aISt10unique_ptrI8ParticleSt14default_deleteIS1_EES4_SaIS4_EEvPT_PT0_RT1_, symObjAddr: 0x6420, symBinAddr: 0x10000AB94, symSize: 0x4C }
  - { offsetInCU: 0x14D26, offset: 0x14D26, size: 0x8, addend: 0x0, symName: __ZNK9__gnu_cxx13new_allocatorISt10unique_ptrI8ParticleSt14default_deleteIS2_EEE8max_sizeEv, symObjAddr: 0x6404, symBinAddr: 0x10000AB78, symSize: 0x1C }
  - { offsetInCU: 0x14D50, offset: 0x14D50, size: 0x8, addend: 0x0, symName: __ZSt12__niter_wrapIPdET_RKS1_S1_, symObjAddr: 0x63EC, symBinAddr: 0x10000AB60, symSize: 0x18 }
  - { offsetInCU: 0x14D89, offset: 0x14D89, size: 0x8, addend: 0x0, symName: __ZSt14__copy_move_a1ILb0EPKdPdET1_T0_S4_S3_, symObjAddr: 0x63C0, symBinAddr: 0x10000AB34, symSize: 0x2C }
  - { offsetInCU: 0x14DED, offset: 0x14DED, size: 0x8, addend: 0x0, symName: __ZSt12__niter_baseIPdET_S1_, symObjAddr: 0x63AC, symBinAddr: 0x10000AB20, symSize: 0x14 }
  - { offsetInCU: 0x14E1E, offset: 0x14E1E, size: 0x8, addend: 0x0, symName: __ZSt12__niter_baseIPKdET_S2_, symObjAddr: 0x6398, symBinAddr: 0x10000AB0C, symSize: 0x14 }
  - { offsetInCU: 0x14E4F, offset: 0x14E4F, size: 0x8, addend: 0x0, symName: __ZNSt10_Head_baseILm0EP8ParticleLb0EE7_M_headERKS2_, symObjAddr: 0x6384, symBinAddr: 0x10000AAF8, symSize: 0x14 }
  - { offsetInCU: 0x14ED3, offset: 0x14ED3, size: 0x8, addend: 0x0, symName: __ZNSt14default_deleteI8ParticleEC1I7NeutronvEERKS_IT_E, symObjAddr: 0x636C, symBinAddr: 0x10000AAE0, symSize: 0x18 }
  - { offsetInCU: 0x14ED1, offset: 0x14ED1, size: 0x8, addend: 0x0, symName: __ZNSt10_Head_baseILm1ESt14default_deleteI7NeutronELb1EE7_M_headERS3_, symObjAddr: 0x6358, symBinAddr: 0x10000AACC, symSize: 0x14 }
  - { offsetInCU: 0x14F4C, offset: 0x14F4C, size: 0x8, addend: 0x0, symName: __ZNSt10_Head_baseILm1ESt14default_deleteI7NeutronELb1EEC2Ev, symObjAddr: 0x6344, symBinAddr: 0x10000AAB8, symSize: 0x14 }
  - { offsetInCU: 0x14F90, offset: 0x14F90, size: 0x8, addend: 0x0, symName: __ZNSt14default_deleteI8ParticleEC1I6ProtonvEERKS_IT_E, symObjAddr: 0x632C, symBinAddr: 0x10000AAA0, symSize: 0x18 }
  - { offsetInCU: 0x14F8F, offset: 0x14F8F, size: 0x8, addend: 0x0, symName: __ZNSt10_Head_baseILm1ESt14default_deleteI6ProtonELb1EE7_M_headERS3_, symObjAddr: 0x6318, symBinAddr: 0x10000AA8C, symSize: 0x14 }
  - { offsetInCU: 0x15009, offset: 0x15009, size: 0x8, addend: 0x0, symName: __ZNSt10_Head_baseILm1ESt14default_deleteI6ProtonELb1EEC2Ev, symObjAddr: 0x6304, symBinAddr: 0x10000AA78, symSize: 0x14 }
  - { offsetInCU: 0x1504E, offset: 0x1504E, size: 0x8, addend: 0x0, symName: __ZNSt14default_deleteI8ParticleEC1I6PhotonvEERKS_IT_E, symObjAddr: 0x62EC, symBinAddr: 0x10000AA60, symSize: 0x18 }
  - { offsetInCU: 0x1504D, offset: 0x1504D, size: 0x8, addend: 0x0, symName: __ZNSt10_Head_baseILm1ESt14default_deleteI6PhotonELb1EE7_M_headERS3_, symObjAddr: 0x62D8, symBinAddr: 0x10000AA4C, symSize: 0x14 }
  - { offsetInCU: 0x150C7, offset: 0x150C7, size: 0x8, addend: 0x0, symName: __ZNSt10_Head_baseILm1ESt14default_deleteI6PhotonELb1EEC2Ev, symObjAddr: 0x62C4, symBinAddr: 0x10000AA38, symSize: 0x14 }
  - { offsetInCU: 0x1510A, offset: 0x1510A, size: 0x8, addend: 0x0, symName: __ZNSt14default_deleteI8ParticleEC1I4MuonvEERKS_IT_E, symObjAddr: 0x62AC, symBinAddr: 0x10000AA20, symSize: 0x18 }
  - { offsetInCU: 0x1510B, offset: 0x1510B, size: 0x8, addend: 0x0, symName: __ZNSt10_Head_baseILm1ESt14default_deleteI4MuonELb1EE7_M_headERS3_, symObjAddr: 0x6298, symBinAddr: 0x10000AA0C, symSize: 0x14 }
  - { offsetInCU: 0x15183, offset: 0x15183, size: 0x8, addend: 0x0, symName: __ZNSt10_Head_baseILm1ESt14default_deleteI4MuonELb1EEC2Ev, symObjAddr: 0x6284, symBinAddr: 0x10000A9F8, symSize: 0x14 }
  - { offsetInCU: 0x1516E, offset: 0x1516E, size: 0x8, addend: 0x0, symName: __ZSt14__relocate_a_1IPSt10unique_ptrI8ParticleSt14default_deleteIS1_EES5_SaIS4_EET0_T_S8_S7_RT1_, symObjAddr: 0x6200, symBinAddr: 0x10000A974, symSize: 0x84 }
  - { offsetInCU: 0x151F1, offset: 0x151F1, size: 0x8, addend: 0x0, symName: __ZSt12__niter_baseIPSt10unique_ptrI8ParticleSt14default_deleteIS1_EEET_S6_, symObjAddr: 0x61EC, symBinAddr: 0x10000A960, symSize: 0x14 }
  - { offsetInCU: 0x15222, offset: 0x15222, size: 0x8, addend: 0x0, symName: __ZNSt16allocator_traitsISaISt10unique_ptrI8ParticleSt14default_deleteIS1_EEEE8max_sizeERKS5_, symObjAddr: 0x61D0, symBinAddr: 0x10000A944, symSize: 0x1C }
  - { offsetInCU: 0x1524A, offset: 0x1524A, size: 0x8, addend: 0x0, symName: __ZNSt10_Head_baseILm1ESt14default_deleteI8ParticleELb1EE7_M_headERS3_, symObjAddr: 0x61BC, symBinAddr: 0x10000A930, symSize: 0x14 }
  - { offsetInCU: 0x152CF, offset: 0x152CF, size: 0x8, addend: 0x0, symName: __ZNSt14default_deleteI8ParticleEC1I8ElectronvEERKS_IT_E, symObjAddr: 0x61A4, symBinAddr: 0x10000A918, symSize: 0x18 }
  - { offsetInCU: 0x152CC, offset: 0x152CC, size: 0x8, addend: 0x0, symName: __ZNSt10_Head_baseILm1ESt14default_deleteI8ElectronELb1EE7_M_headERS3_, symObjAddr: 0x6190, symBinAddr: 0x10000A904, symSize: 0x14 }
  - { offsetInCU: 0x15348, offset: 0x15348, size: 0x8, addend: 0x0, symName: __ZNSt10_Head_baseILm1ESt14default_deleteI8ElectronELb1EEC2Ev, symObjAddr: 0x617C, symBinAddr: 0x10000A8F0, symSize: 0x14 }
  - { offsetInCU: 0x1532F, offset: 0x1532F, size: 0x8, addend: 0x0, symName: __ZSt13__copy_move_aILb0EPKdPdET1_T0_S4_S3_, symObjAddr: 0x611C, symBinAddr: 0x10000A890, symSize: 0x60 }
  - { offsetInCU: 0x15393, offset: 0x15393, size: 0x8, addend: 0x0, symName: __ZSt12__miter_baseIPKdET_S2_, symObjAddr: 0x6108, symBinAddr: 0x10000A87C, symSize: 0x14 }
  - { offsetInCU: 0x1542A, offset: 0x1542A, size: 0x8, addend: 0x0, symName: __ZNSt14default_deleteI11SubDetectorEC1I11MuonChambervEERKS_IT_E, symObjAddr: 0x60F0, symBinAddr: 0x10000A864, symSize: 0x18 }
  - { offsetInCU: 0x1541F, offset: 0x1541F, size: 0x8, addend: 0x0, symName: __ZNSt10_Head_baseILm1ESt14default_deleteI11MuonChamberELb1EE7_M_headERS3_, symObjAddr: 0x60DC, symBinAddr: 0x10000A850, symSize: 0x14 }
  - { offsetInCU: 0x1549F, offset: 0x1549F, size: 0x8, addend: 0x0, symName: __ZNSt10_Head_baseILm1ESt14default_deleteI11MuonChamberELb1EEC2Ev, symObjAddr: 0x60C8, symBinAddr: 0x10000A83C, symSize: 0x14 }
  - { offsetInCU: 0x154E8, offset: 0x154E8, size: 0x8, addend: 0x0, symName: __ZNSt14default_deleteI11SubDetectorEC1I11CalorimetervEERKS_IT_E, symObjAddr: 0x60B0, symBinAddr: 0x10000A824, symSize: 0x18 }
  - { offsetInCU: 0x154DD, offset: 0x154DD, size: 0x8, addend: 0x0, symName: __ZNSt10_Head_baseILm1ESt14default_deleteI11CalorimeterELb1EE7_M_headERS3_, symObjAddr: 0x609C, symBinAddr: 0x10000A810, symSize: 0x14 }
  - { offsetInCU: 0x1555D, offset: 0x1555D, size: 0x8, addend: 0x0, symName: __ZNSt10_Head_baseILm1ESt14default_deleteI11CalorimeterELb1EEC2Ev, symObjAddr: 0x6088, symBinAddr: 0x10000A7FC, symSize: 0x14 }
  - { offsetInCU: 0x15540, offset: 0x15540, size: 0x8, addend: 0x0, symName: __ZNSt10_Head_baseILm1ESt14default_deleteI11SubDetectorELb1EE7_M_headERS3_, symObjAddr: 0x6074, symBinAddr: 0x10000A7E8, symSize: 0x14 }
  - { offsetInCU: 0x155C8, offset: 0x155C8, size: 0x8, addend: 0x0, symName: __ZNSt14default_deleteI11SubDetectorEC1I7TrackervEERKS_IT_E, symObjAddr: 0x605C, symBinAddr: 0x10000A7D0, symSize: 0x18 }
  - { offsetInCU: 0x155C2, offset: 0x155C2, size: 0x8, addend: 0x0, symName: __ZNSt10_Head_baseILm1ESt14default_deleteI7TrackerELb1EE7_M_headERS3_, symObjAddr: 0x6048, symBinAddr: 0x10000A7BC, symSize: 0x14 }
  - { offsetInCU: 0x1563D, offset: 0x1563D, size: 0x8, addend: 0x0, symName: __ZNSt10_Head_baseILm1ESt14default_deleteI7TrackerELb1EEC2Ev, symObjAddr: 0x6034, symBinAddr: 0x10000A7A8, symSize: 0x14 }
  - { offsetInCU: 0x15625, offset: 0x15625, size: 0x8, addend: 0x0, symName: __ZNSt10_Head_baseILm0EP8DetectorLb0EE7_M_headERKS2_, symObjAddr: 0x6020, symBinAddr: 0x10000A794, symSize: 0x14 }
  - { offsetInCU: 0x1564C, offset: 0x1564C, size: 0x8, addend: 0x0, symName: __ZNSt10_Head_baseILm1ESt14default_deleteI8DetectorELb1EE7_M_headERS3_, symObjAddr: 0x600C, symBinAddr: 0x10000A780, symSize: 0x14 }
  - { offsetInCU: 0x156C8, offset: 0x156C8, size: 0x8, addend: 0x0, symName: __ZNSt10_Head_baseILm1ESt14default_deleteI8DetectorELb1EEC2Ev, symObjAddr: 0x5FF8, symBinAddr: 0x10000A76C, symSize: 0x14 }
  - { offsetInCU: 0x156AF, offset: 0x156AF, size: 0x8, addend: 0x0, symName: __ZNSt11_Tuple_implILm0EJP8ParticleSt14default_deleteIS0_EEE7_M_headERKS4_, symObjAddr: 0x5FDC, symBinAddr: 0x10000A750, symSize: 0x1C }
  - { offsetInCU: 0x15758, offset: 0x15758, size: 0x8, addend: 0x0, symName: __ZNSt10_Head_baseILm1ESt14default_deleteI8ParticleELb1EEC2IS0_I7NeutronEEEOT_, symObjAddr: 0x5FA0, symBinAddr: 0x10000A714, symSize: 0x3C }
  - { offsetInCU: 0x1573F, offset: 0x1573F, size: 0x8, addend: 0x0, symName: __ZNSt11_Tuple_implILm1EJSt14default_deleteI7NeutronEEE7_M_headERS3_, symObjAddr: 0x5F84, symBinAddr: 0x10000A6F8, symSize: 0x1C }
  - { offsetInCU: 0x15767, offset: 0x15767, size: 0x8, addend: 0x0, symName: __ZNSt10_Head_baseILm0EP7NeutronLb0EE7_M_headERS2_, symObjAddr: 0x5F70, symBinAddr: 0x10000A6E4, symSize: 0x14 }
  - { offsetInCU: 0x157CF, offset: 0x157CF, size: 0x8, addend: 0x0, symName: __ZNSt10_Head_baseILm0EP7NeutronLb0EEC2Ev, symObjAddr: 0x5F54, symBinAddr: 0x10000A6C8, symSize: 0x1C }
  - { offsetInCU: 0x1581D, offset: 0x1581D, size: 0x8, addend: 0x0, symName: __ZNSt11_Tuple_implILm1EJSt14default_deleteI7NeutronEEEC2Ev, symObjAddr: 0x5F34, symBinAddr: 0x10000A6A8, symSize: 0x20 }
  - { offsetInCU: 0x15886, offset: 0x15886, size: 0x8, addend: 0x0, symName: __ZNSt10_Head_baseILm1ESt14default_deleteI8ParticleELb1EEC2IS0_I6ProtonEEEOT_, symObjAddr: 0x5EF8, symBinAddr: 0x10000A66C, symSize: 0x3C }
  - { offsetInCU: 0x1586E, offset: 0x1586E, size: 0x8, addend: 0x0, symName: __ZNSt11_Tuple_implILm1EJSt14default_deleteI6ProtonEEE7_M_headERS3_, symObjAddr: 0x5EDC, symBinAddr: 0x10000A650, symSize: 0x1C }
  - { offsetInCU: 0x15896, offset: 0x15896, size: 0x8, addend: 0x0, symName: __ZNSt10_Head_baseILm0EP6ProtonLb0EE7_M_headERS2_, symObjAddr: 0x5EC8, symBinAddr: 0x10000A63C, symSize: 0x14 }
  - { offsetInCU: 0x158FD, offset: 0x158FD, size: 0x8, addend: 0x0, symName: __ZNSt10_Head_baseILm0EP6ProtonLb0EEC2Ev, symObjAddr: 0x5EAC, symBinAddr: 0x10000A620, symSize: 0x1C }
  - { offsetInCU: 0x1594B, offset: 0x1594B, size: 0x8, addend: 0x0, symName: __ZNSt11_Tuple_implILm1EJSt14default_deleteI6ProtonEEEC2Ev, symObjAddr: 0x5E8C, symBinAddr: 0x10000A600, symSize: 0x20 }
  - { offsetInCU: 0x159B5, offset: 0x159B5, size: 0x8, addend: 0x0, symName: __ZNSt10_Head_baseILm1ESt14default_deleteI8ParticleELb1EEC2IS0_I6PhotonEEEOT_, symObjAddr: 0x5E50, symBinAddr: 0x10000A5C4, symSize: 0x3C }
  - { offsetInCU: 0x1599D, offset: 0x1599D, size: 0x8, addend: 0x0, symName: __ZNSt11_Tuple_implILm1EJSt14default_deleteI6PhotonEEE7_M_headERS3_, symObjAddr: 0x5E34, symBinAddr: 0x10000A5A8, symSize: 0x1C }
  - { offsetInCU: 0x159C5, offset: 0x159C5, size: 0x8, addend: 0x0, symName: __ZNSt10_Head_baseILm0EP6PhotonLb0EE7_M_headERS2_, symObjAddr: 0x5E20, symBinAddr: 0x10000A594, symSize: 0x14 }
  - { offsetInCU: 0x15A2C, offset: 0x15A2C, size: 0x8, addend: 0x0, symName: __ZNSt10_Head_baseILm0EP6PhotonLb0EEC2Ev, symObjAddr: 0x5E04, symBinAddr: 0x10000A578, symSize: 0x1C }
  - { offsetInCU: 0x15A7A, offset: 0x15A7A, size: 0x8, addend: 0x0, symName: __ZNSt11_Tuple_implILm1EJSt14default_deleteI6PhotonEEEC2Ev, symObjAddr: 0x5DE4, symBinAddr: 0x10000A558, symSize: 0x20 }
  - { offsetInCU: 0x15AE2, offset: 0x15AE2, size: 0x8, addend: 0x0, symName: __ZNSt10_Head_baseILm1ESt14default_deleteI8ParticleELb1EEC2IS0_I4MuonEEEOT_, symObjAddr: 0x5DA8, symBinAddr: 0x10000A51C, symSize: 0x3C }
  - { offsetInCU: 0x15ACC, offset: 0x15ACC, size: 0x8, addend: 0x0, symName: __ZNSt11_Tuple_implILm1EJSt14default_deleteI4MuonEEE7_M_headERS3_, symObjAddr: 0x5D8C, symBinAddr: 0x10000A500, symSize: 0x1C }
  - { offsetInCU: 0x15AF4, offset: 0x15AF4, size: 0x8, addend: 0x0, symName: __ZNSt10_Head_baseILm0EP4MuonLb0EE7_M_headERS2_, symObjAddr: 0x5D78, symBinAddr: 0x10000A4EC, symSize: 0x14 }
  - { offsetInCU: 0x15B59, offset: 0x15B59, size: 0x8, addend: 0x0, symName: __ZNSt10_Head_baseILm0EP4MuonLb0EEC2Ev, symObjAddr: 0x5D5C, symBinAddr: 0x10000A4D0, symSize: 0x1C }
  - { offsetInCU: 0x15BA7, offset: 0x15BA7, size: 0x8, addend: 0x0, symName: __ZNSt11_Tuple_implILm1EJSt14default_deleteI4MuonEEEC2Ev, symObjAddr: 0x5D3C, symBinAddr: 0x10000A4B0, symSize: 0x20 }
  - { offsetInCU: 0x15B93, offset: 0x15B93, size: 0x8, addend: 0x0, symName: __ZSt12__relocate_aIPSt10unique_ptrI8ParticleSt14default_deleteIS1_EES5_SaIS4_EET0_T_S8_S7_RT1_, symObjAddr: 0x5CE0, symBinAddr: 0x10000A454, symSize: 0x5C }
  - { offsetInCU: 0x15C0A, offset: 0x15C0A, size: 0x8, addend: 0x0, symName: __ZN9__gnu_cxx13new_allocatorISt10unique_ptrI8ParticleSt14default_deleteIS2_EEE8allocateEmPKv, symObjAddr: 0x5C68, symBinAddr: 0x10000A3DC, symSize: 0x78 }
  - { offsetInCU: 0x15C57, offset: 0x15C57, size: 0x8, addend: 0x0, symName: __ZNK9__gnu_cxx13new_allocatorISt10unique_ptrI8ParticleSt14default_deleteIS2_EEE11_M_max_sizeEv, symObjAddr: 0x5C54, symBinAddr: 0x10000A3C8, symSize: 0x14 }
  - { offsetInCU: 0x15C7F, offset: 0x15C7F, size: 0x8, addend: 0x0, symName: __ZNKSt12_Vector_baseISt10unique_ptrI8ParticleSt14default_deleteIS1_EESaIS4_EE19_M_get_Tp_allocatorEv, symObjAddr: 0x5C40, symBinAddr: 0x10000A3B4, symSize: 0x14 }
  - { offsetInCU: 0x15CA3, offset: 0x15CA3, size: 0x8, addend: 0x0, symName: __ZNSt6vectorISt10unique_ptrI8ParticleSt14default_deleteIS1_EESaIS4_EE11_S_max_sizeERKS5_, symObjAddr: 0x5C08, symBinAddr: 0x10000A37C, symSize: 0x38 }
  - { offsetInCU: 0x15D4F, offset: 0x15D4F, size: 0x8, addend: 0x0, symName: __ZNSt11_Tuple_implILm1EJSt14default_deleteI8ParticleEEEC2EOS3_, symObjAddr: 0x5BF0, symBinAddr: 0x10000A364, symSize: 0x18 }
  - { offsetInCU: 0x15D42, offset: 0x15D42, size: 0x8, addend: 0x0, symName: __ZSt4moveIRSt5tupleIJP8ParticleSt14default_deleteIS1_EEEEONSt16remove_referenceIT_E4typeEOS8_, symObjAddr: 0x5BDC, symBinAddr: 0x10000A350, symSize: 0x14 }
  - { offsetInCU: 0x15D72, offset: 0x15D72, size: 0x8, addend: 0x0, symName: __ZNSt11_Tuple_implILm1EJSt14default_deleteI8ParticleEEE7_M_headERS3_, symObjAddr: 0x5BC0, symBinAddr: 0x10000A334, symSize: 0x1C }
  - { offsetInCU: 0x15D9A, offset: 0x15D9A, size: 0x8, addend: 0x0, symName: __ZNSt10_Head_baseILm0EP8ParticleLb0EE7_M_headERS2_, symObjAddr: 0x5BAC, symBinAddr: 0x10000A320, symSize: 0x14 }
  - { offsetInCU: 0x15E43, offset: 0x15E43, size: 0x8, addend: 0x0, symName: __ZNSt10_Head_baseILm1ESt14default_deleteI8ParticleELb1EEC2IS0_I8ElectronEEEOT_, symObjAddr: 0x5B70, symBinAddr: 0x10000A2E4, symSize: 0x3C }
  - { offsetInCU: 0x15E29, offset: 0x15E29, size: 0x8, addend: 0x0, symName: __ZNSt11_Tuple_implILm1EJSt14default_deleteI8ElectronEEE7_M_headERS3_, symObjAddr: 0x5B54, symBinAddr: 0x10000A2C8, symSize: 0x1C }
  - { offsetInCU: 0x15E51, offset: 0x15E51, size: 0x8, addend: 0x0, symName: __ZNSt10_Head_baseILm0EP8ElectronLb0EE7_M_headERS2_, symObjAddr: 0x5B40, symBinAddr: 0x10000A2B4, symSize: 0x14 }
  - { offsetInCU: 0x15EBA, offset: 0x15EBA, size: 0x8, addend: 0x0, symName: __ZNSt10_Head_baseILm0EP8ElectronLb0EEC2Ev, symObjAddr: 0x5B24, symBinAddr: 0x10000A298, symSize: 0x1C }
  - { offsetInCU: 0x15F08, offset: 0x15F08, size: 0x8, addend: 0x0, symName: __ZNSt11_Tuple_implILm1EJSt14default_deleteI8ElectronEEEC2Ev, symObjAddr: 0x5B04, symBinAddr: 0x10000A278, symSize: 0x20 }
  - { offsetInCU: 0x15EF0, offset: 0x15EF0, size: 0x8, addend: 0x0, symName: __ZSt4copyIPKdPdET0_T_S4_S3_, symObjAddr: 0x5ABC, symBinAddr: 0x10000A230, symSize: 0x48 }
  - { offsetInCU: 0x15F4E, offset: 0x15F4E, size: 0x8, addend: 0x0, symName: __ZNK9__gnu_cxx13new_allocatorIdE8max_sizeEv, symObjAddr: 0x5AA0, symBinAddr: 0x10000A214, symSize: 0x1C }
  - { offsetInCU: 0x15FFC, offset: 0x15FFC, size: 0x8, addend: 0x0, symName: __ZNSt10_Head_baseILm1ESt14default_deleteI11SubDetectorELb1EEC2IS0_I11MuonChamberEEEOT_, symObjAddr: 0x5A64, symBinAddr: 0x10000A1D8, symSize: 0x3C }
  - { offsetInCU: 0x15FDA, offset: 0x15FDA, size: 0x8, addend: 0x0, symName: __ZNSt11_Tuple_implILm1EJSt14default_deleteI11MuonChamberEEE7_M_headERS3_, symObjAddr: 0x5A48, symBinAddr: 0x10000A1BC, symSize: 0x1C }
  - { offsetInCU: 0x16002, offset: 0x16002, size: 0x8, addend: 0x0, symName: __ZNSt10_Head_baseILm0EP11MuonChamberLb0EE7_M_headERS2_, symObjAddr: 0x5A34, symBinAddr: 0x10000A1A8, symSize: 0x14 }
  - { offsetInCU: 0x1606F, offset: 0x1606F, size: 0x8, addend: 0x0, symName: __ZNSt10_Head_baseILm0EP11MuonChamberLb0EEC2Ev, symObjAddr: 0x5A18, symBinAddr: 0x10000A18C, symSize: 0x1C }
  - { offsetInCU: 0x160BD, offset: 0x160BD, size: 0x8, addend: 0x0, symName: __ZNSt11_Tuple_implILm1EJSt14default_deleteI11MuonChamberEEEC2Ev, symObjAddr: 0x59F8, symBinAddr: 0x10000A16C, symSize: 0x20 }
  - { offsetInCU: 0x1612B, offset: 0x1612B, size: 0x8, addend: 0x0, symName: __ZNSt10_Head_baseILm1ESt14default_deleteI11SubDetectorELb1EEC2IS0_I11CalorimeterEEEOT_, symObjAddr: 0x59BC, symBinAddr: 0x10000A130, symSize: 0x3C }
  - { offsetInCU: 0x16109, offset: 0x16109, size: 0x8, addend: 0x0, symName: __ZNSt11_Tuple_implILm1EJSt14default_deleteI11CalorimeterEEE7_M_headERS3_, symObjAddr: 0x59A0, symBinAddr: 0x10000A114, symSize: 0x1C }
  - { offsetInCU: 0x16131, offset: 0x16131, size: 0x8, addend: 0x0, symName: __ZNSt10_Head_baseILm0EP11CalorimeterLb0EE7_M_headERS2_, symObjAddr: 0x598C, symBinAddr: 0x10000A100, symSize: 0x14 }
  - { offsetInCU: 0x1619E, offset: 0x1619E, size: 0x8, addend: 0x0, symName: __ZNSt10_Head_baseILm0EP11CalorimeterLb0EEC2Ev, symObjAddr: 0x5970, symBinAddr: 0x10000A0E4, symSize: 0x1C }
  - { offsetInCU: 0x161EC, offset: 0x161EC, size: 0x8, addend: 0x0, symName: __ZNSt11_Tuple_implILm1EJSt14default_deleteI11CalorimeterEEEC2Ev, symObjAddr: 0x5950, symBinAddr: 0x10000A0C4, symSize: 0x20 }
  - { offsetInCU: 0x161D0, offset: 0x161D0, size: 0x8, addend: 0x0, symName: __ZNSt11_Tuple_implILm1EJSt14default_deleteI11SubDetectorEEE7_M_headERS3_, symObjAddr: 0x5934, symBinAddr: 0x10000A0A8, symSize: 0x1C }
  - { offsetInCU: 0x161F8, offset: 0x161F8, size: 0x8, addend: 0x0, symName: __ZNSt10_Head_baseILm0EP11SubDetectorLb0EE7_M_headERS2_, symObjAddr: 0x5920, symBinAddr: 0x10000A094, symSize: 0x14 }
  - { offsetInCU: 0x162A4, offset: 0x162A4, size: 0x8, addend: 0x0, symName: __ZNSt10_Head_baseILm1ESt14default_deleteI11SubDetectorELb1EEC2IS0_I7TrackerEEEOT_, symObjAddr: 0x58E4, symBinAddr: 0x10000A058, symSize: 0x3C }
  - { offsetInCU: 0x16287, offset: 0x16287, size: 0x8, addend: 0x0, symName: __ZNSt11_Tuple_implILm1EJSt14default_deleteI7TrackerEEE7_M_headERS3_, symObjAddr: 0x58C8, symBinAddr: 0x10000A03C, symSize: 0x1C }
  - { offsetInCU: 0x162AF, offset: 0x162AF, size: 0x8, addend: 0x0, symName: __ZNSt10_Head_baseILm0EP7TrackerLb0EE7_M_headERS2_, symObjAddr: 0x58B4, symBinAddr: 0x10000A028, symSize: 0x14 }
  - { offsetInCU: 0x16317, offset: 0x16317, size: 0x8, addend: 0x0, symName: __ZNSt10_Head_baseILm0EP7TrackerLb0EEC2Ev, symObjAddr: 0x5898, symBinAddr: 0x10000A00C, symSize: 0x1C }
  - { offsetInCU: 0x16365, offset: 0x16365, size: 0x8, addend: 0x0, symName: __ZNSt11_Tuple_implILm1EJSt14default_deleteI7TrackerEEEC2Ev, symObjAddr: 0x5878, symBinAddr: 0x100009FEC, symSize: 0x20 }
  - { offsetInCU: 0x1634E, offset: 0x1634E, size: 0x8, addend: 0x0, symName: __ZNSt11_Tuple_implILm0EJP8DetectorSt14default_deleteIS0_EEE7_M_headERKS4_, symObjAddr: 0x585C, symBinAddr: 0x100009FD0, symSize: 0x1C }
  - { offsetInCU: 0x16376, offset: 0x16376, size: 0x8, addend: 0x0, symName: __ZNSt11_Tuple_implILm1EJSt14default_deleteI8DetectorEEE7_M_headERS3_, symObjAddr: 0x5840, symBinAddr: 0x100009FB4, symSize: 0x1C }
  - { offsetInCU: 0x1639E, offset: 0x1639E, size: 0x8, addend: 0x0, symName: __ZNSt10_Head_baseILm0EP8DetectorLb0EE7_M_headERS2_, symObjAddr: 0x582C, symBinAddr: 0x100009FA0, symSize: 0x14 }
  - { offsetInCU: 0x16407, offset: 0x16407, size: 0x8, addend: 0x0, symName: __ZNSt10_Head_baseILm0EP8DetectorLb0EEC2Ev, symObjAddr: 0x5810, symBinAddr: 0x100009F84, symSize: 0x1C }
  - { offsetInCU: 0x16455, offset: 0x16455, size: 0x8, addend: 0x0, symName: __ZNSt11_Tuple_implILm1EJSt14default_deleteI8DetectorEEEC2Ev, symObjAddr: 0x57F0, symBinAddr: 0x100009F64, symSize: 0x20 }
  - { offsetInCU: 0x1643D, offset: 0x1643D, size: 0x8, addend: 0x0, symName: __ZSt12__get_helperILm0EP8ParticleJSt14default_deleteIS0_EEERKT0_RKSt11_Tuple_implIXT_EJS4_DpT1_EE, symObjAddr: 0x57D4, symBinAddr: 0x100009F48, symSize: 0x1C }
  - { offsetInCU: 0x164FE, offset: 0x164FE, size: 0x8, addend: 0x0, symName: __ZNSt11_Tuple_implILm1EJSt14default_deleteI8ParticleEEEC2IS0_I7NeutronEEEOT_, symObjAddr: 0x57A4, symBinAddr: 0x100009F18, symSize: 0x30 }
  - { offsetInCU: 0x164E6, offset: 0x164E6, size: 0x8, addend: 0x0, symName: __ZSt12__get_helperILm1ESt14default_deleteI7NeutronEJEERT0_RSt11_Tuple_implIXT_EJS3_DpT1_EE, symObjAddr: 0x5788, symBinAddr: 0x100009EFC, symSize: 0x1C }
  - { offsetInCU: 0x16526, offset: 0x16526, size: 0x8, addend: 0x0, symName: __ZNSt11_Tuple_implILm0EJP7NeutronSt14default_deleteIS0_EEE7_M_headERS4_, symObjAddr: 0x576C, symBinAddr: 0x100009EE0, symSize: 0x1C }
  - { offsetInCU: 0x165A5, offset: 0x165A5, size: 0x8, addend: 0x0, symName: __ZNSt11_Tuple_implILm0EJP7NeutronSt14default_deleteIS0_EEEC2Ev, symObjAddr: 0x5744, symBinAddr: 0x100009EB8, symSize: 0x28 }
  - { offsetInCU: 0x16604, offset: 0x16604, size: 0x8, addend: 0x0, symName: __ZNSt11_Tuple_implILm1EJSt14default_deleteI8ParticleEEEC2IS0_I6ProtonEEEOT_, symObjAddr: 0x5714, symBinAddr: 0x100009E88, symSize: 0x30 }
  - { offsetInCU: 0x165ED, offset: 0x165ED, size: 0x8, addend: 0x0, symName: __ZSt12__get_helperILm1ESt14default_deleteI6ProtonEJEERT0_RSt11_Tuple_implIXT_EJS3_DpT1_EE, symObjAddr: 0x56F8, symBinAddr: 0x100009E6C, symSize: 0x1C }
  - { offsetInCU: 0x1662D, offset: 0x1662D, size: 0x8, addend: 0x0, symName: __ZNSt11_Tuple_implILm0EJP6ProtonSt14default_deleteIS0_EEE7_M_headERS4_, symObjAddr: 0x56DC, symBinAddr: 0x100009E50, symSize: 0x1C }
  - { offsetInCU: 0x166AB, offset: 0x166AB, size: 0x8, addend: 0x0, symName: __ZNSt11_Tuple_implILm0EJP6ProtonSt14default_deleteIS0_EEEC2Ev, symObjAddr: 0x56B4, symBinAddr: 0x100009E28, symSize: 0x28 }
  - { offsetInCU: 0x1670B, offset: 0x1670B, size: 0x8, addend: 0x0, symName: __ZNSt11_Tuple_implILm1EJSt14default_deleteI8ParticleEEEC2IS0_I6PhotonEEEOT_, symObjAddr: 0x5684, symBinAddr: 0x100009DF8, symSize: 0x30 }
  - { offsetInCU: 0x166F4, offset: 0x166F4, size: 0x8, addend: 0x0, symName: __ZSt12__get_helperILm1ESt14default_deleteI6PhotonEJEERT0_RSt11_Tuple_implIXT_EJS3_DpT1_EE, symObjAddr: 0x5668, symBinAddr: 0x100009DDC, symSize: 0x1C }
  - { offsetInCU: 0x16734, offset: 0x16734, size: 0x8, addend: 0x0, symName: __ZNSt11_Tuple_implILm0EJP6PhotonSt14default_deleteIS0_EEE7_M_headERS4_, symObjAddr: 0x564C, symBinAddr: 0x100009DC0, symSize: 0x1C }
  - { offsetInCU: 0x167B2, offset: 0x167B2, size: 0x8, addend: 0x0, symName: __ZNSt11_Tuple_implILm0EJP6PhotonSt14default_deleteIS0_EEEC2Ev, symObjAddr: 0x5624, symBinAddr: 0x100009D98, symSize: 0x28 }
  - { offsetInCU: 0x16810, offset: 0x16810, size: 0x8, addend: 0x0, symName: __ZNSt11_Tuple_implILm1EJSt14default_deleteI8ParticleEEEC2IS0_I4MuonEEEOT_, symObjAddr: 0x55F4, symBinAddr: 0x100009D68, symSize: 0x30 }
  - { offsetInCU: 0x167FB, offset: 0x167FB, size: 0x8, addend: 0x0, symName: __ZSt12__get_helperILm1ESt14default_deleteI4MuonEJEERT0_RSt11_Tuple_implIXT_EJS3_DpT1_EE, symObjAddr: 0x55D8, symBinAddr: 0x100009D4C, symSize: 0x1C }
  - { offsetInCU: 0x1683B, offset: 0x1683B, size: 0x8, addend: 0x0, symName: __ZNSt11_Tuple_implILm0EJP4MuonSt14default_deleteIS0_EEE7_M_headERS4_, symObjAddr: 0x55BC, symBinAddr: 0x100009D30, symSize: 0x1C }
  - { offsetInCU: 0x168B7, offset: 0x168B7, size: 0x8, addend: 0x0, symName: __ZNSt11_Tuple_implILm0EJP4MuonSt14default_deleteIS0_EEEC2Ev, symObjAddr: 0x5594, symBinAddr: 0x100009D08, symSize: 0x28 }
  - { offsetInCU: 0x168A3, offset: 0x168A3, size: 0x8, addend: 0x0, symName: __ZN9__gnu_cxx13new_allocatorISt10unique_ptrI8ParticleSt14default_deleteIS2_EEE7destroyIS5_EEvPT_, symObjAddr: 0x5570, symBinAddr: 0x100009CE4, symSize: 0x24 }
  - { offsetInCU: 0x168DF, offset: 0x168DF, size: 0x8, addend: 0x0, symName: __ZNSt6vectorISt10unique_ptrI8ParticleSt14default_deleteIS1_EESaIS4_EE14_S_do_relocateEPS4_S7_S7_RS5_St17integral_constantIbLb1EE, symObjAddr: 0x5538, symBinAddr: 0x100009CAC, symSize: 0x38 }
  - { offsetInCU: 0x1693F, offset: 0x1693F, size: 0x8, addend: 0x0, symName: __ZNSt16allocator_traitsISaISt10unique_ptrI8ParticleSt14default_deleteIS1_EEEE8allocateERS5_m, symObjAddr: 0x5510, symBinAddr: 0x100009C84, symSize: 0x28 }
  - { offsetInCU: 0x1697D, offset: 0x1697D, size: 0x8, addend: 0x0, symName: __ZSt3maxImERKT_S2_S2_, symObjAddr: 0x54D8, symBinAddr: 0x100009C4C, symSize: 0x38 }
  - { offsetInCU: 0x169C0, offset: 0x169C0, size: 0x8, addend: 0x0, symName: __ZNKSt6vectorISt10unique_ptrI8ParticleSt14default_deleteIS1_EESaIS4_EE4sizeEv, symObjAddr: 0x54B0, symBinAddr: 0x100009C24, symSize: 0x28 }
  - { offsetInCU: 0x169E8, offset: 0x169E8, size: 0x8, addend: 0x0, symName: __ZNKSt6vectorISt10unique_ptrI8ParticleSt14default_deleteIS1_EESaIS4_EE8max_sizeEv, symObjAddr: 0x5490, symBinAddr: 0x100009C04, symSize: 0x20 }
  - { offsetInCU: 0x16A70, offset: 0x16A70, size: 0x8, addend: 0x0, symName: __ZNSt15__uniq_ptr_implI8ParticleSt14default_deleteIS0_EEC2EOS3_, symObjAddr: 0x5448, symBinAddr: 0x100009BBC, symSize: 0x48 }
  - { offsetInCU: 0x16AB1, offset: 0x16AB1, size: 0x8, addend: 0x0, symName: __ZNSt5tupleIJP8ParticleSt14default_deleteIS0_EEEC1EOS4_, symObjAddr: 0x5420, symBinAddr: 0x100009B94, symSize: 0x28 }
  - { offsetInCU: 0x16B05, offset: 0x16B05, size: 0x8, addend: 0x0, symName: __ZNSt11_Tuple_implILm0EJP8ParticleSt14default_deleteIS0_EEEC2EOS4_, symObjAddr: 0x53E8, symBinAddr: 0x100009B5C, symSize: 0x38 }
  - { offsetInCU: 0x16AEE, offset: 0x16AEE, size: 0x8, addend: 0x0, symName: __ZSt12__get_helperILm1ESt14default_deleteI8ParticleEJEERT0_RSt11_Tuple_implIXT_EJS3_DpT1_EE, symObjAddr: 0x53CC, symBinAddr: 0x100009B40, symSize: 0x1C }
  - { offsetInCU: 0x16B2E, offset: 0x16B2E, size: 0x8, addend: 0x0, symName: __ZNSt11_Tuple_implILm0EJP8ParticleSt14default_deleteIS0_EEE7_M_headERS4_, symObjAddr: 0x53B0, symBinAddr: 0x100009B24, symSize: 0x1C }
  - { offsetInCU: 0x16BB5, offset: 0x16BB5, size: 0x8, addend: 0x0, symName: __ZNSt10_Head_baseILm0EP8ParticleLb0EEC2IRS1_EEOT_, symObjAddr: 0x5380, symBinAddr: 0x100009AF4, symSize: 0x30 }
  - { offsetInCU: 0x16C34, offset: 0x16C34, size: 0x8, addend: 0x0, symName: __ZNSt11_Tuple_implILm1EJSt14default_deleteI8ParticleEEEC2IS0_I8ElectronEEEOT_, symObjAddr: 0x5350, symBinAddr: 0x100009AC4, symSize: 0x30 }
  - { offsetInCU: 0x16C1B, offset: 0x16C1B, size: 0x8, addend: 0x0, symName: __ZSt12__get_helperILm1ESt14default_deleteI8ElectronEJEERT0_RSt11_Tuple_implIXT_EJS3_DpT1_EE, symObjAddr: 0x5334, symBinAddr: 0x100009AA8, symSize: 0x1C }
  - { offsetInCU: 0x16C5B, offset: 0x16C5B, size: 0x8, addend: 0x0, symName: __ZNSt11_Tuple_implILm0EJP8ElectronSt14default_deleteIS0_EEE7_M_headERS4_, symObjAddr: 0x5318, symBinAddr: 0x100009A8C, symSize: 0x1C }
  - { offsetInCU: 0x16CDB, offset: 0x16CDB, size: 0x8, addend: 0x0, symName: __ZNSt11_Tuple_implILm0EJP8ElectronSt14default_deleteIS0_EEEC2Ev, symObjAddr: 0x52F0, symBinAddr: 0x100009A64, symSize: 0x28 }
  - { offsetInCU: 0x16CBF, offset: 0x16CBF, size: 0x8, addend: 0x0, symName: __ZNSt20__uninitialized_copyILb1EE13__uninit_copyIPKdPdEET0_T_S6_S5_, symObjAddr: 0x52C4, symBinAddr: 0x100009A38, symSize: 0x2C }
  - { offsetInCU: 0x16D1A, offset: 0x16D1A, size: 0x8, addend: 0x0, symName: __ZN9__gnu_cxx13new_allocatorIdE8allocateEmPKv, symObjAddr: 0x524C, symBinAddr: 0x1000099C0, symSize: 0x78 }
  - { offsetInCU: 0x16D67, offset: 0x16D67, size: 0x8, addend: 0x0, symName: __ZNK9__gnu_cxx13new_allocatorIdE11_M_max_sizeEv, symObjAddr: 0x5238, symBinAddr: 0x1000099AC, symSize: 0x14 }
  - { offsetInCU: 0x16D8B, offset: 0x16D8B, size: 0x8, addend: 0x0, symName: __ZSt3minImERKT_S2_S2_, symObjAddr: 0x5200, symBinAddr: 0x100009974, symSize: 0x38 }
  - { offsetInCU: 0x16DCA, offset: 0x16DCA, size: 0x8, addend: 0x0, symName: __ZNSt16allocator_traitsISaIdEE8max_sizeERKS0_, symObjAddr: 0x51E4, symBinAddr: 0x100009958, symSize: 0x1C }
  - { offsetInCU: 0x16DF6, offset: 0x16DF6, size: 0x8, addend: 0x0, symName: __ZN9__gnu_cxx13new_allocatorIdE10deallocateEPdm, symObjAddr: 0x51B4, symBinAddr: 0x100009928, symSize: 0x30 }
  - { offsetInCU: 0x16EBC, offset: 0x16EBC, size: 0x8, addend: 0x0, symName: __ZNSt11_Tuple_implILm1EJSt14default_deleteI11SubDetectorEEEC2IS0_I11MuonChamberEEEOT_, symObjAddr: 0x5184, symBinAddr: 0x1000098F8, symSize: 0x30 }
  - { offsetInCU: 0x16E9B, offset: 0x16E9B, size: 0x8, addend: 0x0, symName: __ZSt12__get_helperILm1ESt14default_deleteI11MuonChamberEJEERT0_RSt11_Tuple_implIXT_EJS3_DpT1_EE, symObjAddr: 0x5168, symBinAddr: 0x1000098DC, symSize: 0x1C }
  - { offsetInCU: 0x16EDB, offset: 0x16EDB, size: 0x8, addend: 0x0, symName: __ZNSt11_Tuple_implILm0EJP11MuonChamberSt14default_deleteIS0_EEE7_M_headERS4_, symObjAddr: 0x514C, symBinAddr: 0x1000098C0, symSize: 0x1C }
  - { offsetInCU: 0x16F5F, offset: 0x16F5F, size: 0x8, addend: 0x0, symName: __ZNSt11_Tuple_implILm0EJP11MuonChamberSt14default_deleteIS0_EEEC2Ev, symObjAddr: 0x5124, symBinAddr: 0x100009898, symSize: 0x28 }
  - { offsetInCU: 0x16FC3, offset: 0x16FC3, size: 0x8, addend: 0x0, symName: __ZNSt11_Tuple_implILm1EJSt14default_deleteI11SubDetectorEEEC2IS0_I11CalorimeterEEEOT_, symObjAddr: 0x50F4, symBinAddr: 0x100009868, symSize: 0x30 }
  - { offsetInCU: 0x16FA2, offset: 0x16FA2, size: 0x8, addend: 0x0, symName: __ZSt12__get_helperILm1ESt14default_deleteI11CalorimeterEJEERT0_RSt11_Tuple_implIXT_EJS3_DpT1_EE, symObjAddr: 0x50D8, symBinAddr: 0x10000984C, symSize: 0x1C }
  - { offsetInCU: 0x16FE2, offset: 0x16FE2, size: 0x8, addend: 0x0, symName: __ZNSt11_Tuple_implILm0EJP11CalorimeterSt14default_deleteIS0_EEE7_M_headERS4_, symObjAddr: 0x50BC, symBinAddr: 0x100009830, symSize: 0x1C }
  - { offsetInCU: 0x17066, offset: 0x17066, size: 0x8, addend: 0x0, symName: __ZNSt11_Tuple_implILm0EJP11CalorimeterSt14default_deleteIS0_EEEC2Ev, symObjAddr: 0x5094, symBinAddr: 0x100009808, symSize: 0x28 }
  - { offsetInCU: 0x17046, offset: 0x17046, size: 0x8, addend: 0x0, symName: __ZSt12__get_helperILm1ESt14default_deleteI11SubDetectorEJEERT0_RSt11_Tuple_implIXT_EJS3_DpT1_EE, symObjAddr: 0x5078, symBinAddr: 0x1000097EC, symSize: 0x1C }
  - { offsetInCU: 0x17086, offset: 0x17086, size: 0x8, addend: 0x0, symName: __ZNSt11_Tuple_implILm0EJP11SubDetectorSt14default_deleteIS0_EEE7_M_headERS4_, symObjAddr: 0x505C, symBinAddr: 0x1000097D0, symSize: 0x1C }
  - { offsetInCU: 0x17111, offset: 0x17111, size: 0x8, addend: 0x0, symName: __ZNSt10_Head_baseILm0EP11SubDetectorLb0EEC2IRS1_EEOT_, symObjAddr: 0x502C, symBinAddr: 0x1000097A0, symSize: 0x30 }
  - { offsetInCU: 0x1718F, offset: 0x1718F, size: 0x8, addend: 0x0, symName: __ZNSt11_Tuple_implILm1EJSt14default_deleteI11SubDetectorEEEC2IS0_I7TrackerEEEOT_, symObjAddr: 0x4FFC, symBinAddr: 0x100009770, symSize: 0x30 }
  - { offsetInCU: 0x17173, offset: 0x17173, size: 0x8, addend: 0x0, symName: __ZSt12__get_helperILm1ESt14default_deleteI7TrackerEJEERT0_RSt11_Tuple_implIXT_EJS3_DpT1_EE, symObjAddr: 0x4FE0, symBinAddr: 0x100009754, symSize: 0x1C }
  - { offsetInCU: 0x171B3, offset: 0x171B3, size: 0x8, addend: 0x0, symName: __ZNSt11_Tuple_implILm0EJP7TrackerSt14default_deleteIS0_EEE7_M_headERS4_, symObjAddr: 0x4FC4, symBinAddr: 0x100009738, symSize: 0x1C }
  - { offsetInCU: 0x17232, offset: 0x17232, size: 0x8, addend: 0x0, symName: __ZNSt11_Tuple_implILm0EJP7TrackerSt14default_deleteIS0_EEEC2Ev, symObjAddr: 0x4F9C, symBinAddr: 0x100009710, symSize: 0x28 }
  - { offsetInCU: 0x17217, offset: 0x17217, size: 0x8, addend: 0x0, symName: __ZSt12__get_helperILm0EP8DetectorJSt14default_deleteIS0_EEERKT0_RKSt11_Tuple_implIXT_EJS4_DpT1_EE, symObjAddr: 0x4F80, symBinAddr: 0x1000096F4, symSize: 0x1C }
  - { offsetInCU: 0x1725D, offset: 0x1725D, size: 0x8, addend: 0x0, symName: __ZSt12__get_helperILm1ESt14default_deleteI8DetectorEJEERT0_RSt11_Tuple_implIXT_EJS3_DpT1_EE, symObjAddr: 0x4F64, symBinAddr: 0x1000096D8, symSize: 0x1C }
  - { offsetInCU: 0x1729D, offset: 0x1729D, size: 0x8, addend: 0x0, symName: __ZNSt11_Tuple_implILm0EJP8DetectorSt14default_deleteIS0_EEE7_M_headERS4_, symObjAddr: 0x4F48, symBinAddr: 0x1000096BC, symSize: 0x1C }
  - { offsetInCU: 0x1731D, offset: 0x1731D, size: 0x8, addend: 0x0, symName: __ZNSt11_Tuple_implILm0EJP8DetectorSt14default_deleteIS0_EEEC2Ev, symObjAddr: 0x4F20, symBinAddr: 0x100009694, symSize: 0x28 }
  - { offsetInCU: 0x17301, offset: 0x17301, size: 0x8, addend: 0x0, symName: __ZSt8_DestroyISt10unique_ptrI8ParticleSt14default_deleteIS1_EEEvPT_, symObjAddr: 0x4F00, symBinAddr: 0x100009674, symSize: 0x20 }
  - { offsetInCU: 0x17331, offset: 0x17331, size: 0x8, addend: 0x0, symName: __ZSt11__addressofISt10unique_ptrI8ParticleSt14default_deleteIS1_EEEPT_RS5_, symObjAddr: 0x4EEC, symBinAddr: 0x100009660, symSize: 0x14 }
  - { offsetInCU: 0x17367, offset: 0x17367, size: 0x8, addend: 0x0, symName: __ZSt3getILm0EJP8ParticleSt14default_deleteIS0_EEERKNSt13tuple_elementIXT_ESt5tupleIJDpT0_EEE4typeERKS8_, symObjAddr: 0x4ED0, symBinAddr: 0x100009644, symSize: 0x1C }
  - { offsetInCU: 0x1744C, offset: 0x1744C, size: 0x8, addend: 0x0, symName: __ZNSt11_Tuple_implILm0EJP8ParticleSt14default_deleteIS0_EEEC2IRS1_JS2_I7NeutronEEvEEOT_DpOT0_, symObjAddr: 0x4E7C, symBinAddr: 0x1000095F0, symSize: 0x54 }
  - { offsetInCU: 0x17443, offset: 0x17443, size: 0x8, addend: 0x0, symName: __ZSt3getILm1EJP7NeutronSt14default_deleteIS0_EEERNSt13tuple_elementIXT_ESt5tupleIJDpT0_EEE4typeERS8_, symObjAddr: 0x4E60, symBinAddr: 0x1000095D4, symSize: 0x1C }
  - { offsetInCU: 0x17485, offset: 0x17485, size: 0x8, addend: 0x0, symName: __ZSt12__get_helperILm0EP7NeutronJSt14default_deleteIS0_EEERT0_RSt11_Tuple_implIXT_EJS4_DpT1_EE, symObjAddr: 0x4E44, symBinAddr: 0x1000095B8, symSize: 0x1C }
  - { offsetInCU: 0x1752B, offset: 0x1752B, size: 0x8, addend: 0x0, symName: __ZNSt5tupleIJP7NeutronSt14default_deleteIS0_EEEC1ILb1ELb1EEEv, symObjAddr: 0x4E24, symBinAddr: 0x100009598, symSize: 0x20 }
  - { offsetInCU: 0x175BD, offset: 0x175BD, size: 0x8, addend: 0x0, symName: __ZNSt11_Tuple_implILm0EJP8ParticleSt14default_deleteIS0_EEEC2IRS1_JS2_I6ProtonEEvEEOT_DpOT0_, symObjAddr: 0x4DD0, symBinAddr: 0x100009544, symSize: 0x54 }
  - { offsetInCU: 0x175B5, offset: 0x175B5, size: 0x8, addend: 0x0, symName: __ZSt3getILm1EJP6ProtonSt14default_deleteIS0_EEERNSt13tuple_elementIXT_ESt5tupleIJDpT0_EEE4typeERS8_, symObjAddr: 0x4DB4, symBinAddr: 0x100009528, symSize: 0x1C }
  - { offsetInCU: 0x175F7, offset: 0x175F7, size: 0x8, addend: 0x0, symName: __ZSt12__get_helperILm0EP6ProtonJSt14default_deleteIS0_EEERT0_RSt11_Tuple_implIXT_EJS4_DpT1_EE, symObjAddr: 0x4D98, symBinAddr: 0x10000950C, symSize: 0x1C }
  - { offsetInCU: 0x1769C, offset: 0x1769C, size: 0x8, addend: 0x0, symName: __ZNSt5tupleIJP6ProtonSt14default_deleteIS0_EEEC1ILb1ELb1EEEv, symObjAddr: 0x4D78, symBinAddr: 0x1000094EC, symSize: 0x20 }
  - { offsetInCU: 0x1772F, offset: 0x1772F, size: 0x8, addend: 0x0, symName: __ZNSt11_Tuple_implILm0EJP8ParticleSt14default_deleteIS0_EEEC2IRS1_JS2_I6PhotonEEvEEOT_DpOT0_, symObjAddr: 0x4D24, symBinAddr: 0x100009498, symSize: 0x54 }
  - { offsetInCU: 0x17727, offset: 0x17727, size: 0x8, addend: 0x0, symName: __ZSt3getILm1EJP6PhotonSt14default_deleteIS0_EEERNSt13tuple_elementIXT_ESt5tupleIJDpT0_EEE4typeERS8_, symObjAddr: 0x4D08, symBinAddr: 0x10000947C, symSize: 0x1C }
  - { offsetInCU: 0x17769, offset: 0x17769, size: 0x8, addend: 0x0, symName: __ZSt12__get_helperILm0EP6PhotonJSt14default_deleteIS0_EEERT0_RSt11_Tuple_implIXT_EJS4_DpT1_EE, symObjAddr: 0x4CEC, symBinAddr: 0x100009460, symSize: 0x1C }
  - { offsetInCU: 0x1780E, offset: 0x1780E, size: 0x8, addend: 0x0, symName: __ZNSt5tupleIJP6PhotonSt14default_deleteIS0_EEEC1ILb1ELb1EEEv, symObjAddr: 0x4CCC, symBinAddr: 0x100009440, symSize: 0x20 }
  - { offsetInCU: 0x1789F, offset: 0x1789F, size: 0x8, addend: 0x0, symName: __ZNSt11_Tuple_implILm0EJP8ParticleSt14default_deleteIS0_EEEC2IRS1_JS2_I4MuonEEvEEOT_DpOT0_, symObjAddr: 0x4C78, symBinAddr: 0x1000093EC, symSize: 0x54 }
  - { offsetInCU: 0x17899, offset: 0x17899, size: 0x8, addend: 0x0, symName: __ZSt3getILm1EJP4MuonSt14default_deleteIS0_EEERNSt13tuple_elementIXT_ESt5tupleIJDpT0_EEE4typeERS8_, symObjAddr: 0x4C5C, symBinAddr: 0x1000093D0, symSize: 0x1C }
  - { offsetInCU: 0x178DB, offset: 0x178DB, size: 0x8, addend: 0x0, symName: __ZSt12__get_helperILm0EP4MuonJSt14default_deleteIS0_EEERT0_RSt11_Tuple_implIXT_EJS4_DpT1_EE, symObjAddr: 0x4C40, symBinAddr: 0x1000093B4, symSize: 0x1C }
  - { offsetInCU: 0x1797E, offset: 0x1797E, size: 0x8, addend: 0x0, symName: __ZNSt5tupleIJP4MuonSt14default_deleteIS0_EEEC1ILb1ELb1EEEv, symObjAddr: 0x4C20, symBinAddr: 0x100009394, symSize: 0x20 }
  - { offsetInCU: 0x17975, offset: 0x17975, size: 0x8, addend: 0x0, symName: __ZNK9__gnu_cxx17__normal_iteratorIPSt10unique_ptrI8ParticleSt14default_deleteIS2_EESt6vectorIS5_SaIS5_EEEmiEl, symObjAddr: 0x4BDC, symBinAddr: 0x100009350, symSize: 0x44 }
  - { offsetInCU: 0x179A9, offset: 0x179A9, size: 0x8, addend: 0x0, symName: __ZNSt16allocator_traitsISaISt10unique_ptrI8ParticleSt14default_deleteIS1_EEEE7destroyIS4_EEvRS5_PT_, symObjAddr: 0x4BB4, symBinAddr: 0x100009328, symSize: 0x28 }
  - { offsetInCU: 0x179EA, offset: 0x179EA, size: 0x8, addend: 0x0, symName: __ZNSt6vectorISt10unique_ptrI8ParticleSt14default_deleteIS1_EESaIS4_EE11_S_relocateEPS4_S7_S7_RS5_, symObjAddr: 0x4B80, symBinAddr: 0x1000092F4, symSize: 0x34 }
  - { offsetInCU: 0x17A46, offset: 0x17A46, size: 0x8, addend: 0x0, symName: __ZNSt12_Vector_baseISt10unique_ptrI8ParticleSt14default_deleteIS1_EESaIS4_EE11_M_allocateEm, symObjAddr: 0x4B48, symBinAddr: 0x1000092BC, symSize: 0x38 }
  - { offsetInCU: 0x17A80, offset: 0x17A80, size: 0x8, addend: 0x0, symName: __ZN9__gnu_cxxmiIPSt10unique_ptrI8ParticleSt14default_deleteIS2_EESt6vectorIS5_SaIS5_EEEENS_17__normal_iteratorIT_T0_E15difference_typeERKSD_SG_, symObjAddr: 0x4B08, symBinAddr: 0x10000927C, symSize: 0x40 }
  - { offsetInCU: 0x17ACE, offset: 0x17ACE, size: 0x8, addend: 0x0, symName: __ZNKSt6vectorISt10unique_ptrI8ParticleSt14default_deleteIS1_EESaIS4_EE12_M_check_lenEmPKc, symObjAddr: 0x4A3C, symBinAddr: 0x1000091B0, symSize: 0xCC }
  - { offsetInCU: 0x17B26, offset: 0x17B26, size: 0x8, addend: 0x0, symName: __ZN9__gnu_cxx13new_allocatorISt10unique_ptrI8ParticleSt14default_deleteIS2_EEE9constructIS5_JS5_EEEvPT_DpOT0_, symObjAddr: 0x49F0, symBinAddr: 0x100009164, symSize: 0x4C }
  - { offsetInCU: 0x17BD3, offset: 0x17BD3, size: 0x8, addend: 0x0, symName: __ZNSt10unique_ptrI8ParticleSt14default_deleteIS0_EEC1EOS3_, symObjAddr: 0x49C8, symBinAddr: 0x10000913C, symSize: 0x28 }
  - { offsetInCU: 0x17C29, offset: 0x17C29, size: 0x8, addend: 0x0, symName: __ZNSt15__uniq_ptr_dataI8ParticleSt14default_deleteIS0_ELb1ELb1EEC1EOS3_, symObjAddr: 0x49A0, symBinAddr: 0x100009114, symSize: 0x28 }
  - { offsetInCU: 0x17C13, offset: 0x17C13, size: 0x8, addend: 0x0, symName: __ZSt3getILm1EJP8ParticleSt14default_deleteIS0_EEERNSt13tuple_elementIXT_ESt5tupleIJDpT0_EEE4typeERS8_, symObjAddr: 0x4984, symBinAddr: 0x1000090F8, symSize: 0x1C }
  - { offsetInCU: 0x17C55, offset: 0x17C55, size: 0x8, addend: 0x0, symName: __ZSt12__get_helperILm0EP8ParticleJSt14default_deleteIS0_EEERT0_RSt11_Tuple_implIXT_EJS4_DpT1_EE, symObjAddr: 0x4968, symBinAddr: 0x1000090DC, symSize: 0x1C }
  - { offsetInCU: 0x17D3F, offset: 0x17D3F, size: 0x8, addend: 0x0, symName: __ZNSt11_Tuple_implILm0EJP8ParticleSt14default_deleteIS0_EEEC2IRS1_JS2_I8ElectronEEvEEOT_DpOT0_, symObjAddr: 0x4914, symBinAddr: 0x100009088, symSize: 0x54 }
  - { offsetInCU: 0x17D35, offset: 0x17D35, size: 0x8, addend: 0x0, symName: __ZSt7forwardIRP8ParticleEOT_RNSt16remove_referenceIS3_E4typeE, symObjAddr: 0x4900, symBinAddr: 0x100009074, symSize: 0x14 }
  - { offsetInCU: 0x17D6B, offset: 0x17D6B, size: 0x8, addend: 0x0, symName: __ZSt3getILm1EJP8ElectronSt14default_deleteIS0_EEERNSt13tuple_elementIXT_ESt5tupleIJDpT0_EEE4typeERS8_, symObjAddr: 0x48E4, symBinAddr: 0x100009058, symSize: 0x1C }
  - { offsetInCU: 0x17DAD, offset: 0x17DAD, size: 0x8, addend: 0x0, symName: __ZSt12__get_helperILm0EP8ElectronJSt14default_deleteIS0_EEERT0_RSt11_Tuple_implIXT_EJS4_DpT1_EE, symObjAddr: 0x48C8, symBinAddr: 0x10000903C, symSize: 0x1C }
  - { offsetInCU: 0x17E54, offset: 0x17E54, size: 0x8, addend: 0x0, symName: __ZNSt5tupleIJP8ElectronSt14default_deleteIS0_EEEC1ILb1ELb1EEEv, symObjAddr: 0x48A8, symBinAddr: 0x10000901C, symSize: 0x20 }
  - { offsetInCU: 0x17E88, offset: 0x17E88, size: 0x8, addend: 0x0, symName: __ZN9__gnu_cxx13new_allocatorIdEC2ERKS1_, symObjAddr: 0x4890, symBinAddr: 0x100009004, symSize: 0x18 }
  - { offsetInCU: 0x17E8C, offset: 0x17E8C, size: 0x8, addend: 0x0, symName: __ZNSt12_Destroy_auxILb1EE9__destroyIPdEEvT_S3_, symObjAddr: 0x4878, symBinAddr: 0x100008FEC, symSize: 0x18 }
  - { offsetInCU: 0x17EBD, offset: 0x17EBD, size: 0x8, addend: 0x0, symName: __ZSt18uninitialized_copyIPKdPdET0_T_S4_S3_, symObjAddr: 0x4844, symBinAddr: 0x100008FB8, symSize: 0x34 }
  - { offsetInCU: 0x17F24, offset: 0x17F24, size: 0x8, addend: 0x0, symName: __ZNSt16allocator_traitsISaIdEE8allocateERS0_m, symObjAddr: 0x481C, symBinAddr: 0x100008F90, symSize: 0x28 }
  - { offsetInCU: 0x17F5C, offset: 0x17F5C, size: 0x8, addend: 0x0, symName: __ZNSt6vectorIdSaIdEE11_S_max_sizeERKS0_, symObjAddr: 0x47E4, symBinAddr: 0x100008F58, symSize: 0x38 }
  - { offsetInCU: 0x17FA4, offset: 0x17FA4, size: 0x8, addend: 0x0, symName: __ZNSt16allocator_traitsISaIdEE10deallocateERS0_Pdm, symObjAddr: 0x47B4, symBinAddr: 0x100008F28, symSize: 0x30 }
  - { offsetInCU: 0x18037, offset: 0x18037, size: 0x8, addend: 0x0, symName: __ZNSt12_Vector_baseIdSaIdEE17_Vector_impl_dataC2Ev, symObjAddr: 0x4788, symBinAddr: 0x100008EFC, symSize: 0x2C }
  - { offsetInCU: 0x180D4, offset: 0x180D4, size: 0x8, addend: 0x0, symName: __ZNSt11_Tuple_implILm0EJP11SubDetectorSt14default_deleteIS0_EEEC2IRS1_JS2_I11MuonChamberEEvEEOT_DpOT0_, symObjAddr: 0x4734, symBinAddr: 0x100008EA8, symSize: 0x54 }
  - { offsetInCU: 0x180C2, offset: 0x180C2, size: 0x8, addend: 0x0, symName: __ZSt3getILm1EJP11MuonChamberSt14default_deleteIS0_EEERNSt13tuple_elementIXT_ESt5tupleIJDpT0_EEE4typeERS8_, symObjAddr: 0x4718, symBinAddr: 0x100008E8C, symSize: 0x1C }
  - { offsetInCU: 0x18104, offset: 0x18104, size: 0x8, addend: 0x0, symName: __ZSt12__get_helperILm0EP11MuonChamberJSt14default_deleteIS0_EEERT0_RSt11_Tuple_implIXT_EJS4_DpT1_EE, symObjAddr: 0x46FC, symBinAddr: 0x100008E70, symSize: 0x1C }
  - { offsetInCU: 0x181AF, offset: 0x181AF, size: 0x8, addend: 0x0, symName: __ZNSt5tupleIJP11MuonChamberSt14default_deleteIS0_EEEC1ILb1ELb1EEEv, symObjAddr: 0x46DC, symBinAddr: 0x100008E50, symSize: 0x20 }
  - { offsetInCU: 0x18246, offset: 0x18246, size: 0x8, addend: 0x0, symName: __ZNSt11_Tuple_implILm0EJP11SubDetectorSt14default_deleteIS0_EEEC2IRS1_JS2_I11CalorimeterEEvEEOT_DpOT0_, symObjAddr: 0x4688, symBinAddr: 0x100008DFC, symSize: 0x54 }
  - { offsetInCU: 0x18234, offset: 0x18234, size: 0x8, addend: 0x0, symName: __ZSt3getILm1EJP11CalorimeterSt14default_deleteIS0_EEERNSt13tuple_elementIXT_ESt5tupleIJDpT0_EEE4typeERS8_, symObjAddr: 0x466C, symBinAddr: 0x100008DE0, symSize: 0x1C }
  - { offsetInCU: 0x18276, offset: 0x18276, size: 0x8, addend: 0x0, symName: __ZSt12__get_helperILm0EP11CalorimeterJSt14default_deleteIS0_EEERT0_RSt11_Tuple_implIXT_EJS4_DpT1_EE, symObjAddr: 0x4650, symBinAddr: 0x100008DC4, symSize: 0x1C }
  - { offsetInCU: 0x18321, offset: 0x18321, size: 0x8, addend: 0x0, symName: __ZNSt5tupleIJP11CalorimeterSt14default_deleteIS0_EEEC1ILb1ELb1EEEv, symObjAddr: 0x4630, symBinAddr: 0x100008DA4, symSize: 0x20 }
  - { offsetInCU: 0x18312, offset: 0x18312, size: 0x8, addend: 0x0, symName: __ZSt3getILm1EJP11SubDetectorSt14default_deleteIS0_EEERNSt13tuple_elementIXT_ESt5tupleIJDpT0_EEE4typeERS8_, symObjAddr: 0x4614, symBinAddr: 0x100008D88, symSize: 0x1C }
  - { offsetInCU: 0x18354, offset: 0x18354, size: 0x8, addend: 0x0, symName: __ZSt12__get_helperILm0EP11SubDetectorJSt14default_deleteIS0_EEERT0_RSt11_Tuple_implIXT_EJS4_DpT1_EE, symObjAddr: 0x45F8, symBinAddr: 0x100008D6C, symSize: 0x1C }
  - { offsetInCU: 0x18441, offset: 0x18441, size: 0x8, addend: 0x0, symName: __ZNSt11_Tuple_implILm0EJP11SubDetectorSt14default_deleteIS0_EEEC2IRS1_JS2_I7TrackerEEvEEOT_DpOT0_, symObjAddr: 0x45A4, symBinAddr: 0x100008D18, symSize: 0x54 }
  - { offsetInCU: 0x18434, offset: 0x18434, size: 0x8, addend: 0x0, symName: __ZSt7forwardIRP11SubDetectorEOT_RNSt16remove_referenceIS3_E4typeE, symObjAddr: 0x4590, symBinAddr: 0x100008D04, symSize: 0x14 }
  - { offsetInCU: 0x1846A, offset: 0x1846A, size: 0x8, addend: 0x0, symName: __ZSt3getILm1EJP7TrackerSt14default_deleteIS0_EEERNSt13tuple_elementIXT_ESt5tupleIJDpT0_EEE4typeERS8_, symObjAddr: 0x4574, symBinAddr: 0x100008CE8, symSize: 0x1C }
  - { offsetInCU: 0x184AC, offset: 0x184AC, size: 0x8, addend: 0x0, symName: __ZSt12__get_helperILm0EP7TrackerJSt14default_deleteIS0_EEERT0_RSt11_Tuple_implIXT_EJS4_DpT1_EE, symObjAddr: 0x4558, symBinAddr: 0x100008CCC, symSize: 0x1C }
  - { offsetInCU: 0x18552, offset: 0x18552, size: 0x8, addend: 0x0, symName: __ZNSt5tupleIJP7TrackerSt14default_deleteIS0_EEEC1ILb1ELb1EEEv, symObjAddr: 0x4538, symBinAddr: 0x100008CAC, symSize: 0x20 }
  - { offsetInCU: 0x18548, offset: 0x18548, size: 0x8, addend: 0x0, symName: __ZSt3getILm0EJP8DetectorSt14default_deleteIS0_EEERKNSt13tuple_elementIXT_ESt5tupleIJDpT0_EEE4typeERKS8_, symObjAddr: 0x451C, symBinAddr: 0x100008C90, symSize: 0x1C }
  - { offsetInCU: 0x18590, offset: 0x18590, size: 0x8, addend: 0x0, symName: __ZSt3getILm1EJP8DetectorSt14default_deleteIS0_EEERNSt13tuple_elementIXT_ESt5tupleIJDpT0_EEE4typeERS8_, symObjAddr: 0x4500, symBinAddr: 0x100008C74, symSize: 0x1C }
  - { offsetInCU: 0x185D2, offset: 0x185D2, size: 0x8, addend: 0x0, symName: __ZSt12__get_helperILm0EP8DetectorJSt14default_deleteIS0_EEERT0_RSt11_Tuple_implIXT_EJS4_DpT1_EE, symObjAddr: 0x44E4, symBinAddr: 0x100008C58, symSize: 0x1C }
  - { offsetInCU: 0x18679, offset: 0x18679, size: 0x8, addend: 0x0, symName: __ZNSt5tupleIJP8DetectorSt14default_deleteIS0_EEEC1ILb1ELb1EEEv, symObjAddr: 0x44C4, symBinAddr: 0x100008C38, symSize: 0x20 }
  - { offsetInCU: 0x18668, offset: 0x18668, size: 0x8, addend: 0x0, symName: __ZSt10__distanceIPKcENSt15iterator_traitsIT_E15difference_typeES3_S3_St26random_access_iterator_tag, symObjAddr: 0x44A0, symBinAddr: 0x100008C14, symSize: 0x24 }
  - { offsetInCU: 0x186AF, offset: 0x186AF, size: 0x8, addend: 0x0, symName: __ZSt19__iterator_categoryIPKcENSt15iterator_traitsIT_E17iterator_categoryERKS3_, symObjAddr: 0x448C, symBinAddr: 0x100008C00, symSize: 0x14 }
  - { offsetInCU: 0x186D8, offset: 0x186D8, size: 0x8, addend: 0x0, symName: __ZN9__gnu_cxx17__is_null_pointerIKcEEbPT_, symObjAddr: 0x446C, symBinAddr: 0x100008BE0, symSize: 0x20 }
  - { offsetInCU: 0x18708, offset: 0x18708, size: 0x8, addend: 0x0, symName: __ZNSt12_Destroy_auxILb0EE9__destroyIPSt10unique_ptrI8ParticleSt14default_deleteIS3_EEEEvT_S8_, symObjAddr: 0x4420, symBinAddr: 0x100008B94, symSize: 0x4C }
  - { offsetInCU: 0x1874B, offset: 0x1874B, size: 0x8, addend: 0x0, symName: __ZN9__gnu_cxx13new_allocatorISt10unique_ptrI8ParticleSt14default_deleteIS2_EEE10deallocateEPS5_m, symObjAddr: 0x43F0, symBinAddr: 0x100008B64, symSize: 0x30 }
  - { offsetInCU: 0x18791, offset: 0x18791, size: 0x8, addend: 0x0, symName: __ZNKSt15__uniq_ptr_implI8ParticleSt14default_deleteIS0_EE6_M_ptrEv, symObjAddr: 0x43D0, symBinAddr: 0x100008B44, symSize: 0x20 }
  - { offsetInCU: 0x1884B, offset: 0x1884B, size: 0x8, addend: 0x0, symName: __ZNSt5tupleIJP8ParticleSt14default_deleteIS0_EEEC1IRS1_S2_I7NeutronELb1EEEOT_OT0_, symObjAddr: 0x4380, symBinAddr: 0x100008AF4, symSize: 0x50 }
  - { offsetInCU: 0x18843, offset: 0x18843, size: 0x8, addend: 0x0, symName: __ZNSt15__uniq_ptr_implI7NeutronSt14default_deleteIS0_EE7releaseEv, symObjAddr: 0x434C, symBinAddr: 0x100008AC0, symSize: 0x34 }
  - { offsetInCU: 0x1887B, offset: 0x1887B, size: 0x8, addend: 0x0, symName: __ZNSt15__uniq_ptr_implI7NeutronSt14default_deleteIS0_EE10_M_deleterEv, symObjAddr: 0x4330, symBinAddr: 0x100008AA4, symSize: 0x1C }
  - { offsetInCU: 0x188A5, offset: 0x188A5, size: 0x8, addend: 0x0, symName: __ZSt3getILm0EJP7NeutronSt14default_deleteIS0_EEERNSt13tuple_elementIXT_ESt5tupleIJDpT0_EEE4typeERS8_, symObjAddr: 0x4314, symBinAddr: 0x100008A88, symSize: 0x1C }
  - { offsetInCU: 0x1894A, offset: 0x1894A, size: 0x8, addend: 0x0, symName: __ZNSt15__uniq_ptr_implI7NeutronSt14default_deleteIS0_EEC2EPS0_, symObjAddr: 0x42D8, symBinAddr: 0x100008A4C, symSize: 0x3C }
  - { offsetInCU: 0x189CC, offset: 0x189CC, size: 0x8, addend: 0x0, symName: __ZNSt5tupleIJP8ParticleSt14default_deleteIS0_EEEC1IRS1_S2_I6ProtonELb1EEEOT_OT0_, symObjAddr: 0x4288, symBinAddr: 0x1000089FC, symSize: 0x50 }
  - { offsetInCU: 0x189C5, offset: 0x189C5, size: 0x8, addend: 0x0, symName: __ZNSt15__uniq_ptr_implI6ProtonSt14default_deleteIS0_EE7releaseEv, symObjAddr: 0x4254, symBinAddr: 0x1000089C8, symSize: 0x34 }
  - { offsetInCU: 0x189FD, offset: 0x189FD, size: 0x8, addend: 0x0, symName: __ZNSt15__uniq_ptr_implI6ProtonSt14default_deleteIS0_EE10_M_deleterEv, symObjAddr: 0x4238, symBinAddr: 0x1000089AC, symSize: 0x1C }
  - { offsetInCU: 0x18A27, offset: 0x18A27, size: 0x8, addend: 0x0, symName: __ZSt3getILm0EJP6ProtonSt14default_deleteIS0_EEERNSt13tuple_elementIXT_ESt5tupleIJDpT0_EEE4typeERS8_, symObjAddr: 0x421C, symBinAddr: 0x100008990, symSize: 0x1C }
  - { offsetInCU: 0x18ACB, offset: 0x18ACB, size: 0x8, addend: 0x0, symName: __ZNSt15__uniq_ptr_implI6ProtonSt14default_deleteIS0_EEC2EPS0_, symObjAddr: 0x41E0, symBinAddr: 0x100008954, symSize: 0x3C }
  - { offsetInCU: 0x18B4E, offset: 0x18B4E, size: 0x8, addend: 0x0, symName: __ZNSt5tupleIJP8ParticleSt14default_deleteIS0_EEEC1IRS1_S2_I6PhotonELb1EEEOT_OT0_, symObjAddr: 0x4190, symBinAddr: 0x100008904, symSize: 0x50 }
  - { offsetInCU: 0x18B47, offset: 0x18B47, size: 0x8, addend: 0x0, symName: __ZNSt15__uniq_ptr_implI6PhotonSt14default_deleteIS0_EE7releaseEv, symObjAddr: 0x415C, symBinAddr: 0x1000088D0, symSize: 0x34 }
  - { offsetInCU: 0x18B7F, offset: 0x18B7F, size: 0x8, addend: 0x0, symName: __ZNSt15__uniq_ptr_implI6PhotonSt14default_deleteIS0_EE10_M_deleterEv, symObjAddr: 0x4140, symBinAddr: 0x1000088B4, symSize: 0x1C }
  - { offsetInCU: 0x18BA9, offset: 0x18BA9, size: 0x8, addend: 0x0, symName: __ZSt3getILm0EJP6PhotonSt14default_deleteIS0_EEERNSt13tuple_elementIXT_ESt5tupleIJDpT0_EEE4typeERS8_, symObjAddr: 0x4124, symBinAddr: 0x100008898, symSize: 0x1C }
  - { offsetInCU: 0x18C4D, offset: 0x18C4D, size: 0x8, addend: 0x0, symName: __ZNSt15__uniq_ptr_implI6PhotonSt14default_deleteIS0_EEC2EPS0_, symObjAddr: 0x40E8, symBinAddr: 0x10000885C, symSize: 0x3C }
  - { offsetInCU: 0x18CCE, offset: 0x18CCE, size: 0x8, addend: 0x0, symName: __ZNSt5tupleIJP8ParticleSt14default_deleteIS0_EEEC1IRS1_S2_I4MuonELb1EEEOT_OT0_, symObjAddr: 0x4098, symBinAddr: 0x10000880C, symSize: 0x50 }
  - { offsetInCU: 0x18CC9, offset: 0x18CC9, size: 0x8, addend: 0x0, symName: __ZNSt15__uniq_ptr_implI4MuonSt14default_deleteIS0_EE7releaseEv, symObjAddr: 0x4064, symBinAddr: 0x1000087D8, symSize: 0x34 }
  - { offsetInCU: 0x18D01, offset: 0x18D01, size: 0x8, addend: 0x0, symName: __ZNSt15__uniq_ptr_implI4MuonSt14default_deleteIS0_EE10_M_deleterEv, symObjAddr: 0x4048, symBinAddr: 0x1000087BC, symSize: 0x1C }
  - { offsetInCU: 0x18D2B, offset: 0x18D2B, size: 0x8, addend: 0x0, symName: __ZSt3getILm0EJP4MuonSt14default_deleteIS0_EEERNSt13tuple_elementIXT_ESt5tupleIJDpT0_EEE4typeERS8_, symObjAddr: 0x402C, symBinAddr: 0x1000087A0, symSize: 0x1C }
  - { offsetInCU: 0x18DCD, offset: 0x18DCD, size: 0x8, addend: 0x0, symName: __ZNSt15__uniq_ptr_implI4MuonSt14default_deleteIS0_EEC2EPS0_, symObjAddr: 0x3FF0, symBinAddr: 0x100008764, symSize: 0x3C }
  - { offsetInCU: 0x18DC1, offset: 0x18DC1, size: 0x8, addend: 0x0, symName: __ZNSt6vectorISt10unique_ptrI8ParticleSt14default_deleteIS1_EESaIS4_EE4backEv, symObjAddr: 0x3FB8, symBinAddr: 0x10000872C, symSize: 0x38 }
  - { offsetInCU: 0x18DE9, offset: 0x18DE9, size: 0x8, addend: 0x0, symName: __ZNSt6vectorISt10unique_ptrI8ParticleSt14default_deleteIS1_EESaIS4_EE17_M_realloc_insertIJS4_EEEvN9__gnu_cxx17__normal_iteratorIPS4_S6_EEDpOT_, symObjAddr: 0x3E40, symBinAddr: 0x1000085B4, symSize: 0x178 }
  - { offsetInCU: 0x18E9A, offset: 0x18E9A, size: 0x8, addend: 0x0, symName: __ZNSt16allocator_traitsISaISt10unique_ptrI8ParticleSt14default_deleteIS1_EEEE9constructIS4_JS4_EEEvRS5_PT_DpOT0_, symObjAddr: 0x3E08, symBinAddr: 0x10000857C, symSize: 0x38 }
  - { offsetInCU: 0x18EFB, offset: 0x18EFB, size: 0x8, addend: 0x0, symName: __ZSt7forwardISt10unique_ptrI8ParticleSt14default_deleteIS1_EEEOT_RNSt16remove_referenceIS5_E4typeE, symObjAddr: 0x3DF4, symBinAddr: 0x100008568, symSize: 0x14 }
  - { offsetInCU: 0x18F2F, offset: 0x18F2F, size: 0x8, addend: 0x0, symName: __ZNSt15__uniq_ptr_implI8ParticleSt14default_deleteIS0_EE10_M_deleterEv, symObjAddr: 0x3DD8, symBinAddr: 0x10000854C, symSize: 0x1C }
  - { offsetInCU: 0x18F59, offset: 0x18F59, size: 0x8, addend: 0x0, symName: __ZSt3getILm0EJP8ParticleSt14default_deleteIS0_EEERNSt13tuple_elementIXT_ESt5tupleIJDpT0_EEE4typeERS8_, symObjAddr: 0x3DBC, symBinAddr: 0x100008530, symSize: 0x1C }
  - { offsetInCU: 0x19032, offset: 0x19032, size: 0x8, addend: 0x0, symName: __ZNSt5tupleIJP8ParticleSt14default_deleteIS0_EEEC1IRS1_S2_I8ElectronELb1EEEOT_OT0_, symObjAddr: 0x3D6C, symBinAddr: 0x1000084E0, symSize: 0x50 }
  - { offsetInCU: 0x19029, offset: 0x19029, size: 0x8, addend: 0x0, symName: __ZNSt15__uniq_ptr_implI8ElectronSt14default_deleteIS0_EE7releaseEv, symObjAddr: 0x3D38, symBinAddr: 0x1000084AC, symSize: 0x34 }
  - { offsetInCU: 0x19061, offset: 0x19061, size: 0x8, addend: 0x0, symName: __ZNSt15__uniq_ptr_implI8ElectronSt14default_deleteIS0_EE10_M_deleterEv, symObjAddr: 0x3D1C, symBinAddr: 0x100008490, symSize: 0x1C }
  - { offsetInCU: 0x1908B, offset: 0x1908B, size: 0x8, addend: 0x0, symName: __ZSt3getILm0EJP8ElectronSt14default_deleteIS0_EEERNSt13tuple_elementIXT_ESt5tupleIJDpT0_EEE4typeERS8_, symObjAddr: 0x3D00, symBinAddr: 0x100008474, symSize: 0x1C }
  - { offsetInCU: 0x19131, offset: 0x19131, size: 0x8, addend: 0x0, symName: __ZNSt15__uniq_ptr_implI8ElectronSt14default_deleteIS0_EEC2EPS0_, symObjAddr: 0x3CC4, symBinAddr: 0x100008438, symSize: 0x3C }
  - { offsetInCU: 0x19177, offset: 0x19177, size: 0x8, addend: 0x0, symName: __ZNSt12_Vector_baseIdSaIdEE17_Vector_impl_dataC2EOS2_, symObjAddr: 0x3C54, symBinAddr: 0x1000083C8, symSize: 0x70 }
  - { offsetInCU: 0x191A1, offset: 0x191A1, size: 0x8, addend: 0x0, symName: __ZNSaIdEC1ERKS_, symObjAddr: 0x3C2C, symBinAddr: 0x1000083A0, symSize: 0x28 }
  - { offsetInCU: 0x191D1, offset: 0x191D1, size: 0x8, addend: 0x0, symName: __ZNSaIdEC2ERKS_, symObjAddr: 0x3C04, symBinAddr: 0x100008378, symSize: 0x28 }
  - { offsetInCU: 0x191F9, offset: 0x191F9, size: 0x8, addend: 0x0, symName: __ZSt4moveIRNSt12_Vector_baseIdSaIdEE12_Vector_implEEONSt16remove_referenceIT_E4typeEOS6_, symObjAddr: 0x3BF0, symBinAddr: 0x100008364, symSize: 0x14 }
  - { offsetInCU: 0x19229, offset: 0x19229, size: 0x8, addend: 0x0, symName: __ZSt8_DestroyIPdEvT_S1_, symObjAddr: 0x3BC8, symBinAddr: 0x10000833C, symSize: 0x28 }
  - { offsetInCU: 0x19268, offset: 0x19268, size: 0x8, addend: 0x0, symName: __ZSt22__uninitialized_copy_aIPKdPddET0_T_S4_S3_RSaIT1_E, symObjAddr: 0x3B98, symBinAddr: 0x10000830C, symSize: 0x30 }
  - { offsetInCU: 0x192D7, offset: 0x192D7, size: 0x8, addend: 0x0, symName: __ZNSt12_Vector_baseIdSaIdEE11_M_allocateEm, symObjAddr: 0x3B60, symBinAddr: 0x1000082D4, symSize: 0x38 }
  - { offsetInCU: 0x1930B, offset: 0x1930B, size: 0x8, addend: 0x0, symName: __ZNSt6vectorIdSaIdEE17_S_check_init_lenEmRKS0_, symObjAddr: 0x3AF8, symBinAddr: 0x10000826C, symSize: 0x68 }
  - { offsetInCU: 0x19343, offset: 0x19343, size: 0x8, addend: 0x0, symName: __ZSt10__distanceIPKdENSt15iterator_traitsIT_E15difference_typeES3_S3_St26random_access_iterator_tag, symObjAddr: 0x3AD0, symBinAddr: 0x100008244, symSize: 0x28 }
  - { offsetInCU: 0x19390, offset: 0x19390, size: 0x8, addend: 0x0, symName: __ZSt19__iterator_categoryIPKdENSt15iterator_traitsIT_E17iterator_categoryERKS3_, symObjAddr: 0x3ABC, symBinAddr: 0x100008230, symSize: 0x14 }
  - { offsetInCU: 0x193BD, offset: 0x193BD, size: 0x8, addend: 0x0, symName: __ZNKSt16initializer_listIdE4sizeEv, symObjAddr: 0x3AA4, symBinAddr: 0x100008218, symSize: 0x18 }
  - { offsetInCU: 0x193E5, offset: 0x193E5, size: 0x8, addend: 0x0, symName: __ZNSt12_Vector_baseIdSaIdEE13_M_deallocateEPdm, symObjAddr: 0x3A68, symBinAddr: 0x1000081DC, symSize: 0x3C }
  - { offsetInCU: 0x1947F, offset: 0x1947F, size: 0x8, addend: 0x0, symName: __ZNSt12_Vector_baseIdSaIdEE12_Vector_implC1ERKS0_, symObjAddr: 0x3A38, symBinAddr: 0x1000081AC, symSize: 0x30 }
  - { offsetInCU: 0x19518, offset: 0x19518, size: 0x8, addend: 0x0, symName: __ZNSt5tupleIJP11SubDetectorSt14default_deleteIS0_EEEC1IRS1_S2_I11MuonChamberELb1EEEOT_OT0_, symObjAddr: 0x39E8, symBinAddr: 0x10000815C, symSize: 0x50 }
  - { offsetInCU: 0x19507, offset: 0x19507, size: 0x8, addend: 0x0, symName: __ZNSt15__uniq_ptr_implI11MuonChamberSt14default_deleteIS0_EE7releaseEv, symObjAddr: 0x39B4, symBinAddr: 0x100008128, symSize: 0x34 }
  - { offsetInCU: 0x1953F, offset: 0x1953F, size: 0x8, addend: 0x0, symName: __ZNSt15__uniq_ptr_implI11MuonChamberSt14default_deleteIS0_EE10_M_deleterEv, symObjAddr: 0x3998, symBinAddr: 0x10000810C, symSize: 0x1C }
  - { offsetInCU: 0x19569, offset: 0x19569, size: 0x8, addend: 0x0, symName: __ZSt3getILm0EJP11MuonChamberSt14default_deleteIS0_EEERNSt13tuple_elementIXT_ESt5tupleIJDpT0_EEE4typeERS8_, symObjAddr: 0x397C, symBinAddr: 0x1000080F0, symSize: 0x1C }
  - { offsetInCU: 0x19613, offset: 0x19613, size: 0x8, addend: 0x0, symName: __ZNSt15__uniq_ptr_implI11MuonChamberSt14default_deleteIS0_EEC2EPS0_, symObjAddr: 0x3940, symBinAddr: 0x1000080B4, symSize: 0x3C }
  - { offsetInCU: 0x1969A, offset: 0x1969A, size: 0x8, addend: 0x0, symName: __ZNSt5tupleIJP11SubDetectorSt14default_deleteIS0_EEEC1IRS1_S2_I11CalorimeterELb1EEEOT_OT0_, symObjAddr: 0x38F0, symBinAddr: 0x100008064, symSize: 0x50 }
  - { offsetInCU: 0x19689, offset: 0x19689, size: 0x8, addend: 0x0, symName: __ZNSt15__uniq_ptr_implI11CalorimeterSt14default_deleteIS0_EE7releaseEv, symObjAddr: 0x38BC, symBinAddr: 0x100008030, symSize: 0x34 }
  - { offsetInCU: 0x196C1, offset: 0x196C1, size: 0x8, addend: 0x0, symName: __ZNSt15__uniq_ptr_implI11CalorimeterSt14default_deleteIS0_EE10_M_deleterEv, symObjAddr: 0x38A0, symBinAddr: 0x100008014, symSize: 0x1C }
  - { offsetInCU: 0x196EB, offset: 0x196EB, size: 0x8, addend: 0x0, symName: __ZSt3getILm0EJP11CalorimeterSt14default_deleteIS0_EEERNSt13tuple_elementIXT_ESt5tupleIJDpT0_EEE4typeERS8_, symObjAddr: 0x3884, symBinAddr: 0x100007FF8, symSize: 0x1C }
  - { offsetInCU: 0x19795, offset: 0x19795, size: 0x8, addend: 0x0, symName: __ZNSt15__uniq_ptr_implI11CalorimeterSt14default_deleteIS0_EEC2EPS0_, symObjAddr: 0x3848, symBinAddr: 0x100007FBC, symSize: 0x3C }
  - { offsetInCU: 0x19781, offset: 0x19781, size: 0x8, addend: 0x0, symName: __ZNSt15__uniq_ptr_implI11SubDetectorSt14default_deleteIS0_EE10_M_deleterEv, symObjAddr: 0x382C, symBinAddr: 0x100007FA0, symSize: 0x1C }
  - { offsetInCU: 0x197AB, offset: 0x197AB, size: 0x8, addend: 0x0, symName: __ZSt3getILm0EJP11SubDetectorSt14default_deleteIS0_EEERNSt13tuple_elementIXT_ESt5tupleIJDpT0_EEE4typeERS8_, symObjAddr: 0x3810, symBinAddr: 0x100007F84, symSize: 0x1C }
  - { offsetInCU: 0x19887, offset: 0x19887, size: 0x8, addend: 0x0, symName: __ZNSt5tupleIJP11SubDetectorSt14default_deleteIS0_EEEC1IRS1_S2_I7TrackerELb1EEEOT_OT0_, symObjAddr: 0x37C0, symBinAddr: 0x100007F34, symSize: 0x50 }
  - { offsetInCU: 0x1987B, offset: 0x1987B, size: 0x8, addend: 0x0, symName: __ZNSt15__uniq_ptr_implI7TrackerSt14default_deleteIS0_EE7releaseEv, symObjAddr: 0x378C, symBinAddr: 0x100007F00, symSize: 0x34 }
  - { offsetInCU: 0x198B3, offset: 0x198B3, size: 0x8, addend: 0x0, symName: __ZNSt15__uniq_ptr_implI7TrackerSt14default_deleteIS0_EE10_M_deleterEv, symObjAddr: 0x3770, symBinAddr: 0x100007EE4, symSize: 0x1C }
  - { offsetInCU: 0x198DD, offset: 0x198DD, size: 0x8, addend: 0x0, symName: __ZSt3getILm0EJP7TrackerSt14default_deleteIS0_EEERNSt13tuple_elementIXT_ESt5tupleIJDpT0_EEE4typeERS8_, symObjAddr: 0x3754, symBinAddr: 0x100007EC8, symSize: 0x1C }
  - { offsetInCU: 0x19982, offset: 0x19982, size: 0x8, addend: 0x0, symName: __ZNSt15__uniq_ptr_implI7TrackerSt14default_deleteIS0_EEC2EPS0_, symObjAddr: 0x3718, symBinAddr: 0x100007E8C, symSize: 0x3C }
  - { offsetInCU: 0x19973, offset: 0x19973, size: 0x8, addend: 0x0, symName: __ZNKSt15__uniq_ptr_implI8DetectorSt14default_deleteIS0_EE6_M_ptrEv, symObjAddr: 0x36F8, symBinAddr: 0x100007E6C, symSize: 0x20 }
  - { offsetInCU: 0x1999B, offset: 0x1999B, size: 0x8, addend: 0x0, symName: __ZNSt15__uniq_ptr_implI8DetectorSt14default_deleteIS0_EE10_M_deleterEv, symObjAddr: 0x36DC, symBinAddr: 0x100007E50, symSize: 0x1C }
  - { offsetInCU: 0x199C5, offset: 0x199C5, size: 0x8, addend: 0x0, symName: __ZSt3getILm0EJP8DetectorSt14default_deleteIS0_EEERNSt13tuple_elementIXT_ESt5tupleIJDpT0_EEE4typeERS8_, symObjAddr: 0x36C0, symBinAddr: 0x100007E34, symSize: 0x1C }
  - { offsetInCU: 0x19A6B, offset: 0x19A6B, size: 0x8, addend: 0x0, symName: __ZNSt15__uniq_ptr_implI8DetectorSt14default_deleteIS0_EEC2EPS0_, symObjAddr: 0x3684, symBinAddr: 0x100007DF8, symSize: 0x3C }
  - { offsetInCU: 0x19A5B, offset: 0x19A5B, size: 0x8, addend: 0x0, symName: __ZNSt7__cxx1112basic_stringIcSt11char_traitsIcESaIcEE12_M_constructIPKcEEvT_S8_St20forward_iterator_tag, symObjAddr: 0x3588, symBinAddr: 0x100007CFC, symSize: 0xFC }
  - { offsetInCU: 0x19ABE, offset: 0x19ABE, size: 0x8, addend: 0x0, symName: __ZSt8distanceIPKcENSt15iterator_traitsIT_E15difference_typeES3_S3_, symObjAddr: 0x354C, symBinAddr: 0x100007CC0, symSize: 0x3C }
  - { offsetInCU: 0x19AFD, offset: 0x19AFD, size: 0x8, addend: 0x0, symName: __ZSt8_DestroyIPSt10unique_ptrI8ParticleSt14default_deleteIS1_EEEvT_S6_, symObjAddr: 0x3524, symBinAddr: 0x100007C98, symSize: 0x28 }
  - { offsetInCU: 0x19B3C, offset: 0x19B3C, size: 0x8, addend: 0x0, symName: __ZNSt16allocator_traitsISaISt10unique_ptrI8ParticleSt14default_deleteIS1_EEEE10deallocateERS5_PS4_m, symObjAddr: 0x34F4, symBinAddr: 0x100007C68, symSize: 0x30 }
  - { offsetInCU: 0x19BEF, offset: 0x19BEF, size: 0x8, addend: 0x0, symName: __ZN9__gnu_cxx13new_allocatorISt10unique_ptrI8ParticleSt14default_deleteIS2_EEEC2Ev, symObjAddr: 0x34E0, symBinAddr: 0x100007C54, symSize: 0x14 }
  - { offsetInCU: 0x19BC4, offset: 0x19BC4, size: 0x8, addend: 0x0, symName: __ZNKSt10unique_ptrI8ParticleSt14default_deleteIS0_EE3getEv, symObjAddr: 0x34C4, symBinAddr: 0x100007C38, symSize: 0x1C }
  - { offsetInCU: 0x19BEC, offset: 0x19BEC, size: 0x8, addend: 0x0, symName: __ZNK9__gnu_cxx17__normal_iteratorIPSt10unique_ptrI8ParticleSt14default_deleteIS2_EESt6vectorIS5_SaIS5_EEE4baseEv, symObjAddr: 0x34B0, symBinAddr: 0x100007C24, symSize: 0x14 }
  - { offsetInCU: 0x19CA6, offset: 0x19CA6, size: 0x8, addend: 0x0, symName: __ZN9__gnu_cxx17__normal_iteratorIPSt10unique_ptrI8ParticleSt14default_deleteIS2_EESt6vectorIS5_SaIS5_EEEC1ERKS6_, symObjAddr: 0x3488, symBinAddr: 0x100007BFC, symSize: 0x28 }
  - { offsetInCU: 0x19CEC, offset: 0x19CEC, size: 0x8, addend: 0x0, symName: __ZNSt15__uniq_ptr_implI8ParticleSt14default_deleteIS0_EEC2IS1_I7NeutronEEEPS0_OT_, symObjAddr: 0x343C, symBinAddr: 0x100007BB0, symSize: 0x4C }
  - { offsetInCU: 0x19CDD, offset: 0x19CDD, size: 0x8, addend: 0x0, symName: __ZSt7forwardISt14default_deleteI7NeutronEEOT_RNSt16remove_referenceIS3_E4typeE, symObjAddr: 0x3428, symBinAddr: 0x100007B9C, symSize: 0x14 }
  - { offsetInCU: 0x19D11, offset: 0x19D11, size: 0x8, addend: 0x0, symName: __ZNSt10unique_ptrI7NeutronSt14default_deleteIS0_EE7releaseEv, symObjAddr: 0x340C, symBinAddr: 0x100007B80, symSize: 0x1C }
  - { offsetInCU: 0x19D39, offset: 0x19D39, size: 0x8, addend: 0x0, symName: __ZNKSt14default_deleteI7NeutronEclEPS0_, symObjAddr: 0x33D4, symBinAddr: 0x100007B48, symSize: 0x38 }
  - { offsetInCU: 0x19D72, offset: 0x19D72, size: 0x8, addend: 0x0, symName: __ZSt4moveIRP7NeutronEONSt16remove_referenceIT_E4typeEOS4_, symObjAddr: 0x33C0, symBinAddr: 0x100007B34, symSize: 0x14 }
  - { offsetInCU: 0x19DA6, offset: 0x19DA6, size: 0x8, addend: 0x0, symName: __ZNSt10unique_ptrI7NeutronSt14default_deleteIS0_EE11get_deleterEv, symObjAddr: 0x33A4, symBinAddr: 0x100007B18, symSize: 0x1C }
  - { offsetInCU: 0x19DCE, offset: 0x19DCE, size: 0x8, addend: 0x0, symName: __ZNSt15__uniq_ptr_implI7NeutronSt14default_deleteIS0_EE6_M_ptrEv, symObjAddr: 0x3388, symBinAddr: 0x100007AFC, symSize: 0x1C }
  - { offsetInCU: 0x19E60, offset: 0x19E60, size: 0x8, addend: 0x0, symName: __ZNSt10unique_ptrI7NeutronSt14default_deleteIS0_EEC1IS2_vEEPS0_, symObjAddr: 0x3360, symBinAddr: 0x100007AD4, symSize: 0x28 }
  - { offsetInCU: 0x19ED9, offset: 0x19ED9, size: 0x8, addend: 0x0, symName: __ZNSt15__uniq_ptr_dataI7NeutronSt14default_deleteIS0_ELb1ELb1EECI1St15__uniq_ptr_implIS0_S2_EEPS0_, symObjAddr: 0x3338, symBinAddr: 0x100007AAC, symSize: 0x28 }
  - { offsetInCU: 0x19F2C, offset: 0x19F2C, size: 0x8, addend: 0x0, symName: __ZNSt15__uniq_ptr_implI8ParticleSt14default_deleteIS0_EEC2IS1_I6ProtonEEEPS0_OT_, symObjAddr: 0x32EC, symBinAddr: 0x100007A60, symSize: 0x4C }
  - { offsetInCU: 0x19F1E, offset: 0x19F1E, size: 0x8, addend: 0x0, symName: __ZSt7forwardISt14default_deleteI6ProtonEEOT_RNSt16remove_referenceIS3_E4typeE, symObjAddr: 0x32D8, symBinAddr: 0x100007A4C, symSize: 0x14 }
  - { offsetInCU: 0x19F52, offset: 0x19F52, size: 0x8, addend: 0x0, symName: __ZNSt10unique_ptrI6ProtonSt14default_deleteIS0_EE7releaseEv, symObjAddr: 0x32BC, symBinAddr: 0x100007A30, symSize: 0x1C }
  - { offsetInCU: 0x19F7A, offset: 0x19F7A, size: 0x8, addend: 0x0, symName: __ZNKSt14default_deleteI6ProtonEclEPS0_, symObjAddr: 0x3284, symBinAddr: 0x1000079F8, symSize: 0x38 }
  - { offsetInCU: 0x19FB3, offset: 0x19FB3, size: 0x8, addend: 0x0, symName: __ZSt4moveIRP6ProtonEONSt16remove_referenceIT_E4typeEOS4_, symObjAddr: 0x3270, symBinAddr: 0x1000079E4, symSize: 0x14 }
  - { offsetInCU: 0x19FE7, offset: 0x19FE7, size: 0x8, addend: 0x0, symName: __ZNSt10unique_ptrI6ProtonSt14default_deleteIS0_EE11get_deleterEv, symObjAddr: 0x3254, symBinAddr: 0x1000079C8, symSize: 0x1C }
  - { offsetInCU: 0x1A00F, offset: 0x1A00F, size: 0x8, addend: 0x0, symName: __ZNSt15__uniq_ptr_implI6ProtonSt14default_deleteIS0_EE6_M_ptrEv, symObjAddr: 0x3238, symBinAddr: 0x1000079AC, symSize: 0x1C }
  - { offsetInCU: 0x1A0A0, offset: 0x1A0A0, size: 0x8, addend: 0x0, symName: __ZNSt10unique_ptrI6ProtonSt14default_deleteIS0_EEC1IS2_vEEPS0_, symObjAddr: 0x3210, symBinAddr: 0x100007984, symSize: 0x28 }
  - { offsetInCU: 0x1A119, offset: 0x1A119, size: 0x8, addend: 0x0, symName: __ZNSt15__uniq_ptr_dataI6ProtonSt14default_deleteIS0_ELb1ELb1EECI1St15__uniq_ptr_implIS0_S2_EEPS0_, symObjAddr: 0x31E8, symBinAddr: 0x10000795C, symSize: 0x28 }
  - { offsetInCU: 0x1A16D, offset: 0x1A16D, size: 0x8, addend: 0x0, symName: __ZNSt15__uniq_ptr_implI8ParticleSt14default_deleteIS0_EEC2IS1_I6PhotonEEEPS0_OT_, symObjAddr: 0x319C, symBinAddr: 0x100007910, symSize: 0x4C }
  - { offsetInCU: 0x1A15F, offset: 0x1A15F, size: 0x8, addend: 0x0, symName: __ZSt7forwardISt14default_deleteI6PhotonEEOT_RNSt16remove_referenceIS3_E4typeE, symObjAddr: 0x3188, symBinAddr: 0x1000078FC, symSize: 0x14 }
  - { offsetInCU: 0x1A193, offset: 0x1A193, size: 0x8, addend: 0x0, symName: __ZNSt10unique_ptrI6PhotonSt14default_deleteIS0_EE7releaseEv, symObjAddr: 0x316C, symBinAddr: 0x1000078E0, symSize: 0x1C }
  - { offsetInCU: 0x1A1BB, offset: 0x1A1BB, size: 0x8, addend: 0x0, symName: __ZNKSt14default_deleteI6PhotonEclEPS0_, symObjAddr: 0x3134, symBinAddr: 0x1000078A8, symSize: 0x38 }
  - { offsetInCU: 0x1A1F4, offset: 0x1A1F4, size: 0x8, addend: 0x0, symName: __ZSt4moveIRP6PhotonEONSt16remove_referenceIT_E4typeEOS4_, symObjAddr: 0x3120, symBinAddr: 0x100007894, symSize: 0x14 }
  - { offsetInCU: 0x1A228, offset: 0x1A228, size: 0x8, addend: 0x0, symName: __ZNSt10unique_ptrI6PhotonSt14default_deleteIS0_EE11get_deleterEv, symObjAddr: 0x3104, symBinAddr: 0x100007878, symSize: 0x1C }
  - { offsetInCU: 0x1A250, offset: 0x1A250, size: 0x8, addend: 0x0, symName: __ZNSt15__uniq_ptr_implI6PhotonSt14default_deleteIS0_EE6_M_ptrEv, symObjAddr: 0x30E8, symBinAddr: 0x10000785C, symSize: 0x1C }
  - { offsetInCU: 0x1A2E1, offset: 0x1A2E1, size: 0x8, addend: 0x0, symName: __ZNSt10unique_ptrI6PhotonSt14default_deleteIS0_EEC1IS2_vEEPS0_, symObjAddr: 0x30C0, symBinAddr: 0x100007834, symSize: 0x28 }
  - { offsetInCU: 0x1A35A, offset: 0x1A35A, size: 0x8, addend: 0x0, symName: __ZNSt15__uniq_ptr_dataI6PhotonSt14default_deleteIS0_ELb1ELb1EECI1St15__uniq_ptr_implIS0_S2_EEPS0_, symObjAddr: 0x3098, symBinAddr: 0x10000780C, symSize: 0x28 }
  - { offsetInCU: 0x1A3AC, offset: 0x1A3AC, size: 0x8, addend: 0x0, symName: __ZNSt15__uniq_ptr_implI8ParticleSt14default_deleteIS0_EEC2IS1_I4MuonEEEPS0_OT_, symObjAddr: 0x304C, symBinAddr: 0x1000077C0, symSize: 0x4C }
  - { offsetInCU: 0x1A3A0, offset: 0x1A3A0, size: 0x8, addend: 0x0, symName: __ZSt7forwardISt14default_deleteI4MuonEEOT_RNSt16remove_referenceIS3_E4typeE, symObjAddr: 0x3038, symBinAddr: 0x1000077AC, symSize: 0x14 }
  - { offsetInCU: 0x1A3D4, offset: 0x1A3D4, size: 0x8, addend: 0x0, symName: __ZNSt10unique_ptrI4MuonSt14default_deleteIS0_EE7releaseEv, symObjAddr: 0x301C, symBinAddr: 0x100007790, symSize: 0x1C }
  - { offsetInCU: 0x1A3FC, offset: 0x1A3FC, size: 0x8, addend: 0x0, symName: __ZNKSt14default_deleteI4MuonEclEPS0_, symObjAddr: 0x2FE4, symBinAddr: 0x100007758, symSize: 0x38 }
  - { offsetInCU: 0x1A435, offset: 0x1A435, size: 0x8, addend: 0x0, symName: __ZSt4moveIRP4MuonEONSt16remove_referenceIT_E4typeEOS4_, symObjAddr: 0x2FD0, symBinAddr: 0x100007744, symSize: 0x14 }
  - { offsetInCU: 0x1A469, offset: 0x1A469, size: 0x8, addend: 0x0, symName: __ZNSt10unique_ptrI4MuonSt14default_deleteIS0_EE11get_deleterEv, symObjAddr: 0x2FB4, symBinAddr: 0x100007728, symSize: 0x1C }
  - { offsetInCU: 0x1A491, offset: 0x1A491, size: 0x8, addend: 0x0, symName: __ZNSt15__uniq_ptr_implI4MuonSt14default_deleteIS0_EE6_M_ptrEv, symObjAddr: 0x2F98, symBinAddr: 0x10000770C, symSize: 0x1C }
  - { offsetInCU: 0x1A520, offset: 0x1A520, size: 0x8, addend: 0x0, symName: __ZNSt10unique_ptrI4MuonSt14default_deleteIS0_EEC1IS2_vEEPS0_, symObjAddr: 0x2F70, symBinAddr: 0x1000076E4, symSize: 0x28 }
  - { offsetInCU: 0x1A599, offset: 0x1A599, size: 0x8, addend: 0x0, symName: __ZNSt15__uniq_ptr_dataI4MuonSt14default_deleteIS0_ELb1ELb1EECI1St15__uniq_ptr_implIS0_S2_EEPS0_, symObjAddr: 0x2F48, symBinAddr: 0x1000076BC, symSize: 0x28 }
  - { offsetInCU: 0x1A571, offset: 0x1A571, size: 0x8, addend: 0x0, symName: __ZSt7forwardIbEOT_RNSt16remove_referenceIS0_E4typeE, symObjAddr: 0x2F34, symBinAddr: 0x1000076A8, symSize: 0x14 }
  - { offsetInCU: 0x1A5A5, offset: 0x1A5A5, size: 0x8, addend: 0x0, symName: __ZNSt6vectorISt10unique_ptrI8ParticleSt14default_deleteIS1_EESaIS4_EE12emplace_backIJS4_EEERS4_DpOT_, symObjAddr: 0x2E94, symBinAddr: 0x100007608, symSize: 0xA0 }
  - { offsetInCU: 0x1A5E8, offset: 0x1A5E8, size: 0x8, addend: 0x0, symName: __ZSt4moveIRSt10unique_ptrI8ParticleSt14default_deleteIS1_EEEONSt16remove_referenceIT_E4typeEOS7_, symObjAddr: 0x2E80, symBinAddr: 0x1000075F4, symSize: 0x14 }
  - { offsetInCU: 0x1A61C, offset: 0x1A61C, size: 0x8, addend: 0x0, symName: __ZNKSt14default_deleteI8ParticleEclEPS0_, symObjAddr: 0x2E48, symBinAddr: 0x1000075BC, symSize: 0x38 }
  - { offsetInCU: 0x1A655, offset: 0x1A655, size: 0x8, addend: 0x0, symName: __ZSt4moveIRP8ParticleEONSt16remove_referenceIT_E4typeEOS4_, symObjAddr: 0x2E34, symBinAddr: 0x1000075A8, symSize: 0x14 }
  - { offsetInCU: 0x1A689, offset: 0x1A689, size: 0x8, addend: 0x0, symName: __ZNSt10unique_ptrI8ParticleSt14default_deleteIS0_EE11get_deleterEv, symObjAddr: 0x2E18, symBinAddr: 0x10000758C, symSize: 0x1C }
  - { offsetInCU: 0x1A6B1, offset: 0x1A6B1, size: 0x8, addend: 0x0, symName: __ZNSt15__uniq_ptr_implI8ParticleSt14default_deleteIS0_EE6_M_ptrEv, symObjAddr: 0x2DFC, symBinAddr: 0x100007570, symSize: 0x1C }
  - { offsetInCU: 0x1A761, offset: 0x1A761, size: 0x8, addend: 0x0, symName: __ZNSt15__uniq_ptr_implI8ParticleSt14default_deleteIS0_EEC2IS1_I8ElectronEEEPS0_OT_, symObjAddr: 0x2DB0, symBinAddr: 0x100007524, symSize: 0x4C }
  - { offsetInCU: 0x1A751, offset: 0x1A751, size: 0x8, addend: 0x0, symName: __ZSt7forwardISt14default_deleteI8ElectronEEOT_RNSt16remove_referenceIS3_E4typeE, symObjAddr: 0x2D9C, symBinAddr: 0x100007510, symSize: 0x14 }
  - { offsetInCU: 0x1A785, offset: 0x1A785, size: 0x8, addend: 0x0, symName: __ZNSt10unique_ptrI8ElectronSt14default_deleteIS0_EE7releaseEv, symObjAddr: 0x2D80, symBinAddr: 0x1000074F4, symSize: 0x1C }
  - { offsetInCU: 0x1A7AD, offset: 0x1A7AD, size: 0x8, addend: 0x0, symName: __ZNKSt14default_deleteI8ElectronEclEPS0_, symObjAddr: 0x2D48, symBinAddr: 0x1000074BC, symSize: 0x38 }
  - { offsetInCU: 0x1A7E6, offset: 0x1A7E6, size: 0x8, addend: 0x0, symName: __ZSt4moveIRP8ElectronEONSt16remove_referenceIT_E4typeEOS4_, symObjAddr: 0x2D34, symBinAddr: 0x1000074A8, symSize: 0x14 }
  - { offsetInCU: 0x1A81A, offset: 0x1A81A, size: 0x8, addend: 0x0, symName: __ZNSt10unique_ptrI8ElectronSt14default_deleteIS0_EE11get_deleterEv, symObjAddr: 0x2D18, symBinAddr: 0x10000748C, symSize: 0x1C }
  - { offsetInCU: 0x1A842, offset: 0x1A842, size: 0x8, addend: 0x0, symName: __ZNSt15__uniq_ptr_implI8ElectronSt14default_deleteIS0_EE6_M_ptrEv, symObjAddr: 0x2CFC, symBinAddr: 0x100007470, symSize: 0x1C }
  - { offsetInCU: 0x1A8D5, offset: 0x1A8D5, size: 0x8, addend: 0x0, symName: __ZNSt10unique_ptrI8ElectronSt14default_deleteIS0_EEC1IS2_vEEPS0_, symObjAddr: 0x2CD4, symBinAddr: 0x100007448, symSize: 0x28 }
  - { offsetInCU: 0x1A94E, offset: 0x1A94E, size: 0x8, addend: 0x0, symName: __ZNSt15__uniq_ptr_dataI8ElectronSt14default_deleteIS0_ELb1ELb1EECI1St15__uniq_ptr_implIS0_S2_EEPS0_, symObjAddr: 0x2CAC, symBinAddr: 0x100007420, symSize: 0x28 }
  - { offsetInCU: 0x1A96B, offset: 0x1A96B, size: 0x8, addend: 0x0, symName: __ZNSt12_Vector_baseIdSaIdEE12_Vector_implC1EOS2_, symObjAddr: 0x2C5C, symBinAddr: 0x1000073D0, symSize: 0x50 }
  - { offsetInCU: 0x1A96C, offset: 0x1A96C, size: 0x8, addend: 0x0, symName: __ZSt7forwardISt6vectorIdSaIdEEEOT_RNSt16remove_referenceIS3_E4typeE, symObjAddr: 0x2C48, symBinAddr: 0x1000073BC, symSize: 0x14 }
  - { offsetInCU: 0x1A99C, offset: 0x1A99C, size: 0x8, addend: 0x0, symName: __ZSt8_DestroyIPddEvT_S1_RSaIT0_E, symObjAddr: 0x2C1C, symBinAddr: 0x100007390, symSize: 0x2C }
  - { offsetInCU: 0x1A9F2, offset: 0x1A9F2, size: 0x8, addend: 0x0, symName: __ZNSt12_Vector_baseIdSaIdEE19_M_get_Tp_allocatorEv, symObjAddr: 0x2C08, symBinAddr: 0x10000737C, symSize: 0x14 }
  - { offsetInCU: 0x1AA1A, offset: 0x1AA1A, size: 0x8, addend: 0x0, symName: __ZNSt6vectorIdSaIdEE19_M_range_initializeIPKdEEvT_S5_St20forward_iterator_tag, symObjAddr: 0x2B50, symBinAddr: 0x1000072C4, symSize: 0xB8 }
  - { offsetInCU: 0x1AA7F, offset: 0x1AA7F, size: 0x8, addend: 0x0, symName: __ZSt8distanceIPKdENSt15iterator_traitsIT_E15difference_typeES3_S3_, symObjAddr: 0x2B14, symBinAddr: 0x100007288, symSize: 0x3C }
  - { offsetInCU: 0x1AAC2, offset: 0x1AAC2, size: 0x8, addend: 0x0, symName: __ZNKSt16initializer_listIdE3endEv, symObjAddr: 0x2ADC, symBinAddr: 0x100007250, symSize: 0x38 }
  - { offsetInCU: 0x1AAEA, offset: 0x1AAEA, size: 0x8, addend: 0x0, symName: __ZNKSt16initializer_listIdE5beginEv, symObjAddr: 0x2AC4, symBinAddr: 0x100007238, symSize: 0x18 }
  - { offsetInCU: 0x1AB4F, offset: 0x1AB4F, size: 0x8, addend: 0x0, symName: __ZNSt12_Vector_baseIdSaIdEED2Ev, symObjAddr: 0x2A74, symBinAddr: 0x1000071E8, symSize: 0x50 }
  - { offsetInCU: 0x1AB9C, offset: 0x1AB9C, size: 0x8, addend: 0x0, symName: __ZNSt12_Vector_baseIdSaIdEEC2ERKS0_, symObjAddr: 0x2A4C, symBinAddr: 0x1000071C0, symSize: 0x28 }
  - { offsetInCU: 0x1ABE9, offset: 0x1ABE9, size: 0x8, addend: 0x0, symName: __ZN9__gnu_cxx13new_allocatorIdED2Ev, symObjAddr: 0x2A38, symBinAddr: 0x1000071AC, symSize: 0x14 }
  - { offsetInCU: 0x1AC25, offset: 0x1AC25, size: 0x8, addend: 0x0, symName: __ZN9__gnu_cxx13new_allocatorIdEC2Ev, symObjAddr: 0x2A24, symBinAddr: 0x100007198, symSize: 0x14 }
  - { offsetInCU: 0x1ACB9, offset: 0x1ACB9, size: 0x8, addend: 0x0, symName: __ZNSt15__uniq_ptr_implI11SubDetectorSt14default_deleteIS0_EEC2IS1_I11MuonChamberEEEPS0_OT_, symObjAddr: 0x29D8, symBinAddr: 0x10000714C, symSize: 0x4C }
  - { offsetInCU: 0x1ACA1, offset: 0x1ACA1, size: 0x8, addend: 0x0, symName: __ZSt7forwardISt14default_deleteI11MuonChamberEEOT_RNSt16remove_referenceIS3_E4typeE, symObjAddr: 0x29C4, symBinAddr: 0x100007138, symSize: 0x14 }
  - { offsetInCU: 0x1ACD5, offset: 0x1ACD5, size: 0x8, addend: 0x0, symName: __ZNSt10unique_ptrI11MuonChamberSt14default_deleteIS0_EE7releaseEv, symObjAddr: 0x29A8, symBinAddr: 0x10000711C, symSize: 0x1C }
  - { offsetInCU: 0x1ACFD, offset: 0x1ACFD, size: 0x8, addend: 0x0, symName: __ZNKSt14default_deleteI11MuonChamberEclEPS0_, symObjAddr: 0x2970, symBinAddr: 0x1000070E4, symSize: 0x38 }
  - { offsetInCU: 0x1AD36, offset: 0x1AD36, size: 0x8, addend: 0x0, symName: __ZSt4moveIRP11MuonChamberEONSt16remove_referenceIT_E4typeEOS4_, symObjAddr: 0x295C, symBinAddr: 0x1000070D0, symSize: 0x14 }
  - { offsetInCU: 0x1AD6A, offset: 0x1AD6A, size: 0x8, addend: 0x0, symName: __ZNSt10unique_ptrI11MuonChamberSt14default_deleteIS0_EE11get_deleterEv, symObjAddr: 0x2940, symBinAddr: 0x1000070B4, symSize: 0x1C }
  - { offsetInCU: 0x1AD92, offset: 0x1AD92, size: 0x8, addend: 0x0, symName: __ZNSt15__uniq_ptr_implI11MuonChamberSt14default_deleteIS0_EE6_M_ptrEv, symObjAddr: 0x2924, symBinAddr: 0x100007098, symSize: 0x1C }
  - { offsetInCU: 0x1AE29, offset: 0x1AE29, size: 0x8, addend: 0x0, symName: __ZNSt10unique_ptrI11MuonChamberSt14default_deleteIS0_EEC1IS2_vEEPS0_, symObjAddr: 0x28FC, symBinAddr: 0x100007070, symSize: 0x28 }
  - { offsetInCU: 0x1AEA2, offset: 0x1AEA2, size: 0x8, addend: 0x0, symName: __ZNSt15__uniq_ptr_dataI11MuonChamberSt14default_deleteIS0_ELb1ELb1EECI1St15__uniq_ptr_implIS0_S2_EEPS0_, symObjAddr: 0x28D4, symBinAddr: 0x100007048, symSize: 0x28 }
  - { offsetInCU: 0x1AE72, offset: 0x1AE72, size: 0x8, addend: 0x0, symName: __ZSt7forwardIRA12_KcEOT_RNSt16remove_referenceIS3_E4typeE, symObjAddr: 0x28C0, symBinAddr: 0x100007034, symSize: 0x14 }
  - { offsetInCU: 0x1AF36, offset: 0x1AF36, size: 0x8, addend: 0x0, symName: __ZNSt15__uniq_ptr_implI11SubDetectorSt14default_deleteIS0_EEC2IS1_I11CalorimeterEEEPS0_OT_, symObjAddr: 0x2874, symBinAddr: 0x100006FE8, symSize: 0x4C }
  - { offsetInCU: 0x1AF1E, offset: 0x1AF1E, size: 0x8, addend: 0x0, symName: __ZSt7forwardISt14default_deleteI11CalorimeterEEOT_RNSt16remove_referenceIS3_E4typeE, symObjAddr: 0x2860, symBinAddr: 0x100006FD4, symSize: 0x14 }
  - { offsetInCU: 0x1AF52, offset: 0x1AF52, size: 0x8, addend: 0x0, symName: __ZNSt10unique_ptrI11CalorimeterSt14default_deleteIS0_EE7releaseEv, symObjAddr: 0x2844, symBinAddr: 0x100006FB8, symSize: 0x1C }
  - { offsetInCU: 0x1AF7A, offset: 0x1AF7A, size: 0x8, addend: 0x0, symName: __ZNKSt14default_deleteI11CalorimeterEclEPS0_, symObjAddr: 0x280C, symBinAddr: 0x100006F80, symSize: 0x38 }
  - { offsetInCU: 0x1AFB3, offset: 0x1AFB3, size: 0x8, addend: 0x0, symName: __ZSt4moveIRP11CalorimeterEONSt16remove_referenceIT_E4typeEOS4_, symObjAddr: 0x27F8, symBinAddr: 0x100006F6C, symSize: 0x14 }
  - { offsetInCU: 0x1AFE7, offset: 0x1AFE7, size: 0x8, addend: 0x0, symName: __ZNSt10unique_ptrI11CalorimeterSt14default_deleteIS0_EE11get_deleterEv, symObjAddr: 0x27DC, symBinAddr: 0x100006F50, symSize: 0x1C }
  - { offsetInCU: 0x1B00F, offset: 0x1B00F, size: 0x8, addend: 0x0, symName: __ZNSt15__uniq_ptr_implI11CalorimeterSt14default_deleteIS0_EE6_M_ptrEv, symObjAddr: 0x27C0, symBinAddr: 0x100006F34, symSize: 0x1C }
  - { offsetInCU: 0x1B0A6, offset: 0x1B0A6, size: 0x8, addend: 0x0, symName: __ZNSt10unique_ptrI11CalorimeterSt14default_deleteIS0_EEC1IS2_vEEPS0_, symObjAddr: 0x2798, symBinAddr: 0x100006F0C, symSize: 0x28 }
  - { offsetInCU: 0x1B11F, offset: 0x1B11F, size: 0x8, addend: 0x0, symName: __ZNSt15__uniq_ptr_dataI11CalorimeterSt14default_deleteIS0_ELb1ELb1EECI1St15__uniq_ptr_implIS0_S2_EEPS0_, symObjAddr: 0x2770, symBinAddr: 0x100006EE4, symSize: 0x28 }
  - { offsetInCU: 0x1B0EF, offset: 0x1B0EF, size: 0x8, addend: 0x0, symName: __ZSt7forwardIRA24_KcEOT_RNSt16remove_referenceIS3_E4typeE, symObjAddr: 0x275C, symBinAddr: 0x100006ED0, symSize: 0x14 }
  - { offsetInCU: 0x1B123, offset: 0x1B123, size: 0x8, addend: 0x0, symName: __ZNKSt14default_deleteI11SubDetectorEclEPS0_, symObjAddr: 0x2724, symBinAddr: 0x100006E98, symSize: 0x38 }
  - { offsetInCU: 0x1B15C, offset: 0x1B15C, size: 0x8, addend: 0x0, symName: __ZSt4moveIRP11SubDetectorEONSt16remove_referenceIT_E4typeEOS4_, symObjAddr: 0x2710, symBinAddr: 0x100006E84, symSize: 0x14 }
  - { offsetInCU: 0x1B190, offset: 0x1B190, size: 0x8, addend: 0x0, symName: __ZNSt10unique_ptrI11SubDetectorSt14default_deleteIS0_EE11get_deleterEv, symObjAddr: 0x26F4, symBinAddr: 0x100006E68, symSize: 0x1C }
  - { offsetInCU: 0x1B1B8, offset: 0x1B1B8, size: 0x8, addend: 0x0, symName: __ZNSt15__uniq_ptr_implI11SubDetectorSt14default_deleteIS0_EE6_M_ptrEv, symObjAddr: 0x26D8, symBinAddr: 0x100006E4C, symSize: 0x1C }
  - { offsetInCU: 0x1B26B, offset: 0x1B26B, size: 0x8, addend: 0x0, symName: __ZNSt15__uniq_ptr_implI11SubDetectorSt14default_deleteIS0_EEC2IS1_I7TrackerEEEPS0_OT_, symObjAddr: 0x268C, symBinAddr: 0x100006E00, symSize: 0x4C }
  - { offsetInCU: 0x1B258, offset: 0x1B258, size: 0x8, addend: 0x0, symName: __ZSt7forwardISt14default_deleteI7TrackerEEOT_RNSt16remove_referenceIS3_E4typeE, symObjAddr: 0x2678, symBinAddr: 0x100006DEC, symSize: 0x14 }
  - { offsetInCU: 0x1B28C, offset: 0x1B28C, size: 0x8, addend: 0x0, symName: __ZNSt10unique_ptrI7TrackerSt14default_deleteIS0_EE7releaseEv, symObjAddr: 0x265C, symBinAddr: 0x100006DD0, symSize: 0x1C }
  - { offsetInCU: 0x1B2B4, offset: 0x1B2B4, size: 0x8, addend: 0x0, symName: __ZNKSt14default_deleteI7TrackerEclEPS0_, symObjAddr: 0x2624, symBinAddr: 0x100006D98, symSize: 0x38 }
  - { offsetInCU: 0x1B2ED, offset: 0x1B2ED, size: 0x8, addend: 0x0, symName: __ZSt4moveIRP7TrackerEONSt16remove_referenceIT_E4typeEOS4_, symObjAddr: 0x2610, symBinAddr: 0x100006D84, symSize: 0x14 }
  - { offsetInCU: 0x1B321, offset: 0x1B321, size: 0x8, addend: 0x0, symName: __ZNSt10unique_ptrI7TrackerSt14default_deleteIS0_EE11get_deleterEv, symObjAddr: 0x25F4, symBinAddr: 0x100006D68, symSize: 0x1C }
  - { offsetInCU: 0x1B349, offset: 0x1B349, size: 0x8, addend: 0x0, symName: __ZNSt15__uniq_ptr_implI7TrackerSt14default_deleteIS0_EE6_M_ptrEv, symObjAddr: 0x25D8, symBinAddr: 0x100006D4C, symSize: 0x1C }
  - { offsetInCU: 0x1B3DB, offset: 0x1B3DB, size: 0x8, addend: 0x0, symName: __ZNSt10unique_ptrI7TrackerSt14default_deleteIS0_EEC1IS2_vEEPS0_, symObjAddr: 0x25B0, symBinAddr: 0x100006D24, symSize: 0x28 }
  - { offsetInCU: 0x1B454, offset: 0x1B454, size: 0x8, addend: 0x0, symName: __ZNSt15__uniq_ptr_dataI7TrackerSt14default_deleteIS0_ELb1ELb1EECI1St15__uniq_ptr_implIS0_S2_EEPS0_, symObjAddr: 0x2588, symBinAddr: 0x100006CFC, symSize: 0x28 }
  - { offsetInCU: 0x1B429, offset: 0x1B429, size: 0x8, addend: 0x0, symName: __ZSt7forwardIiEOT_RNSt16remove_referenceIS0_E4typeE, symObjAddr: 0x2574, symBinAddr: 0x100006CE8, symSize: 0x14 }
  - { offsetInCU: 0x1B465, offset: 0x1B465, size: 0x8, addend: 0x0, symName: __ZSt7forwardIRA8_KcEOT_RNSt16remove_referenceIS3_E4typeE, symObjAddr: 0x2560, symBinAddr: 0x100006CD4, symSize: 0x14 }
  - { offsetInCU: 0x1B499, offset: 0x1B499, size: 0x8, addend: 0x0, symName: __ZNKSt10unique_ptrI8DetectorSt14default_deleteIS0_EE3getEv, symObjAddr: 0x2544, symBinAddr: 0x100006CB8, symSize: 0x1C }
  - { offsetInCU: 0x1B4C1, offset: 0x1B4C1, size: 0x8, addend: 0x0, symName: __ZNKSt14default_deleteI8DetectorEclEPS0_, symObjAddr: 0x2500, symBinAddr: 0x100006C74, symSize: 0x44 }
  - { offsetInCU: 0x1B4FA, offset: 0x1B4FA, size: 0x8, addend: 0x0, symName: __ZSt4moveIRP8DetectorEONSt16remove_referenceIT_E4typeEOS4_, symObjAddr: 0x24EC, symBinAddr: 0x100006C60, symSize: 0x14 }
  - { offsetInCU: 0x1B52E, offset: 0x1B52E, size: 0x8, addend: 0x0, symName: __ZNSt10unique_ptrI8DetectorSt14default_deleteIS0_EE11get_deleterEv, symObjAddr: 0x24D0, symBinAddr: 0x100006C44, symSize: 0x1C }
  - { offsetInCU: 0x1B556, offset: 0x1B556, size: 0x8, addend: 0x0, symName: __ZNSt15__uniq_ptr_implI8DetectorSt14default_deleteIS0_EE6_M_ptrEv, symObjAddr: 0x24B4, symBinAddr: 0x100006C28, symSize: 0x1C }
  - { offsetInCU: 0x1B5E9, offset: 0x1B5E9, size: 0x8, addend: 0x0, symName: __ZNSt10unique_ptrI8DetectorSt14default_deleteIS0_EEC1IS2_vEEPS0_, symObjAddr: 0x248C, symBinAddr: 0x100006C00, symSize: 0x28 }
  - { offsetInCU: 0x1B662, offset: 0x1B662, size: 0x8, addend: 0x0, symName: __ZNSt15__uniq_ptr_dataI8DetectorSt14default_deleteIS0_ELb1ELb1EECI1St15__uniq_ptr_implIS0_S2_EEPS0_, symObjAddr: 0x2464, symBinAddr: 0x100006BD8, symSize: 0x28 }
  - { offsetInCU: 0x1B6B2, offset: 0x1B6B2, size: 0x8, addend: 0x0, symName: __ZNSt7__cxx1112basic_stringIcSt11char_traitsIcESaIcEEC1IS3_EEPKcRKS3_, symObjAddr: 0x23CC, symBinAddr: 0x100006B40, symSize: 0x98 }
  - { offsetInCU: 0x1B6D9, offset: 0x1B6D9, size: 0x8, addend: 0x0, symName: __ZSt7forwardIRA4_KcEOT_RNSt16remove_referenceIS3_E4typeE, symObjAddr: 0x23B8, symBinAddr: 0x100006B2C, symSize: 0x14 }
  - { offsetInCU: 0x1B709, offset: 0x1B709, size: 0x8, addend: 0x0, symName: __ZSt8_DestroyIPSt10unique_ptrI8ParticleSt14default_deleteIS1_EES4_EvT_S6_RSaIT0_E, symObjAddr: 0x238C, symBinAddr: 0x100006B00, symSize: 0x2C }
  - { offsetInCU: 0x1B75F, offset: 0x1B75F, size: 0x8, addend: 0x0, symName: __ZNSt12_Vector_baseISt10unique_ptrI8ParticleSt14default_deleteIS1_EESaIS4_EE19_M_get_Tp_allocatorEv, symObjAddr: 0x2378, symBinAddr: 0x100006AEC, symSize: 0x14 }
  - { offsetInCU: 0x1B787, offset: 0x1B787, size: 0x8, addend: 0x0, symName: __ZNSt12_Vector_baseISt10unique_ptrI8ParticleSt14default_deleteIS1_EESaIS4_EE13_M_deallocateEPS4_m, symObjAddr: 0x233C, symBinAddr: 0x100006AB0, symSize: 0x3C }
  - { offsetInCU: 0x1B83F, offset: 0x1B83F, size: 0x8, addend: 0x0, symName: __ZN9__gnu_cxx13new_allocatorISt10unique_ptrI8ParticleSt14default_deleteIS2_EEED2Ev, symObjAddr: 0x2328, symBinAddr: 0x100006A9C, symSize: 0x14 }
  - { offsetInCU: 0x1B88C, offset: 0x1B88C, size: 0x8, addend: 0x0, symName: __ZNSt12_Vector_baseISt10unique_ptrI8ParticleSt14default_deleteIS1_EESaIS4_EE17_Vector_impl_dataC2Ev, symObjAddr: 0x22FC, symBinAddr: 0x100006A70, symSize: 0x2C }
  - { offsetInCU: 0x1B8A0, offset: 0x1B8A0, size: 0x8, addend: 0x0, symName: __ZNSaISt10unique_ptrI8ParticleSt14default_deleteIS0_EEEC2Ev, symObjAddr: 0x22DC, symBinAddr: 0x100006A50, symSize: 0x20 }
  - { offsetInCU: 0x1B88C, offset: 0x1B88C, size: 0x8, addend: 0x0, symName: __ZNKSt10unique_ptrI8ParticleSt14default_deleteIS0_EEdeEv, symObjAddr: 0x22B0, symBinAddr: 0x100006A24, symSize: 0x2C }
  - { offsetInCU: 0x1B8B4, offset: 0x1B8B4, size: 0x8, addend: 0x0, symName: __ZNK9__gnu_cxx17__normal_iteratorIPSt10unique_ptrI8ParticleSt14default_deleteIS2_EESt6vectorIS5_SaIS5_EEEdeEv, symObjAddr: 0x2298, symBinAddr: 0x100006A0C, symSize: 0x18 }
  - { offsetInCU: 0x1B8DC, offset: 0x1B8DC, size: 0x8, addend: 0x0, symName: __ZN9__gnu_cxx17__normal_iteratorIPSt10unique_ptrI8ParticleSt14default_deleteIS2_EESt6vectorIS5_SaIS5_EEEppEv, symObjAddr: 0x2270, symBinAddr: 0x1000069E4, symSize: 0x28 }
  - { offsetInCU: 0x1B900, offset: 0x1B900, size: 0x8, addend: 0x0, symName: __ZN9__gnu_cxxneIPSt10unique_ptrI8ParticleSt14default_deleteIS2_EESt6vectorIS5_SaIS5_EEEEbRKNS_17__normal_iteratorIT_T0_EESF_, symObjAddr: 0x222C, symBinAddr: 0x1000069A0, symSize: 0x44 }
  - { offsetInCU: 0x1B94E, offset: 0x1B94E, size: 0x8, addend: 0x0, symName: __ZNSt6vectorISt10unique_ptrI8ParticleSt14default_deleteIS1_EESaIS4_EE3endEv, symObjAddr: 0x2204, symBinAddr: 0x100006978, symSize: 0x28 }
  - { offsetInCU: 0x1B976, offset: 0x1B976, size: 0x8, addend: 0x0, symName: __ZNSt6vectorISt10unique_ptrI8ParticleSt14default_deleteIS1_EESaIS4_EE5beginEv, symObjAddr: 0x21E0, symBinAddr: 0x100006954, symSize: 0x24 }
  - { offsetInCU: 0x1B99A, offset: 0x1B99A, size: 0x8, addend: 0x0, symName: __ZSt11make_uniqueI7NeutronJiSt6vectorIdSaIdEEbEENSt9_MakeUniqIT_E15__single_objectEDpOT0_, symObjAddr: 0x2110, symBinAddr: 0x100006884, symSize: 0xD0 }
  - { offsetInCU: 0x1BA7A, offset: 0x1BA7A, size: 0x8, addend: 0x0, symName: __ZNSt10unique_ptrI8ParticleSt14default_deleteIS0_EEC1I7NeutronS1_IS5_EvEEOS_IT_T0_E, symObjAddr: 0x20C0, symBinAddr: 0x100006834, symSize: 0x50 }
  - { offsetInCU: 0x1BB09, offset: 0x1BB09, size: 0x8, addend: 0x0, symName: __ZNSt15__uniq_ptr_dataI8ParticleSt14default_deleteIS0_ELb1ELb1EECI1St15__uniq_ptr_implIS0_S2_EIS1_I7NeutronEEEPS0_OT_, symObjAddr: 0x2090, symBinAddr: 0x100006804, symSize: 0x30 }
  - { offsetInCU: 0x1BB38, offset: 0x1BB38, size: 0x8, addend: 0x0, symName: __ZNSt10unique_ptrI7NeutronSt14default_deleteIS0_EED1Ev, symObjAddr: 0x2028, symBinAddr: 0x10000679C, symSize: 0x68 }
  - { offsetInCU: 0x1BB52, offset: 0x1BB52, size: 0x8, addend: 0x0, symName: __ZSt11make_uniqueI7NeutronJiSt6vectorIdSaIdEEEENSt9_MakeUniqIT_E15__single_objectEDpOT0_, symObjAddr: 0x1F70, symBinAddr: 0x1000066E4, symSize: 0xB8 }
  - { offsetInCU: 0x1BB9A, offset: 0x1BB9A, size: 0x8, addend: 0x0, symName: __ZSt11make_uniqueI6ProtonJiSt6vectorIdSaIdEEbEENSt9_MakeUniqIT_E15__single_objectEDpOT0_, symObjAddr: 0x1EA0, symBinAddr: 0x100006614, symSize: 0xD0 }
  - { offsetInCU: 0x1BC79, offset: 0x1BC79, size: 0x8, addend: 0x0, symName: __ZNSt10unique_ptrI8ParticleSt14default_deleteIS0_EEC1I6ProtonS1_IS5_EvEEOS_IT_T0_E, symObjAddr: 0x1E50, symBinAddr: 0x1000065C4, symSize: 0x50 }
  - { offsetInCU: 0x1BD08, offset: 0x1BD08, size: 0x8, addend: 0x0, symName: __ZNSt15__uniq_ptr_dataI8ParticleSt14default_deleteIS0_ELb1ELb1EECI1St15__uniq_ptr_implIS0_S2_EIS1_I6ProtonEEEPS0_OT_, symObjAddr: 0x1E20, symBinAddr: 0x100006594, symSize: 0x30 }
  - { offsetInCU: 0x1BD37, offset: 0x1BD37, size: 0x8, addend: 0x0, symName: __ZNSt10unique_ptrI6ProtonSt14default_deleteIS0_EED1Ev, symObjAddr: 0x1DB8, symBinAddr: 0x10000652C, symSize: 0x68 }
  - { offsetInCU: 0x1BD52, offset: 0x1BD52, size: 0x8, addend: 0x0, symName: __ZSt11make_uniqueI6ProtonJiSt6vectorIdSaIdEEEENSt9_MakeUniqIT_E15__single_objectEDpOT0_, symObjAddr: 0x1D00, symBinAddr: 0x100006474, symSize: 0xB8 }
  - { offsetInCU: 0x1BE24, offset: 0x1BE24, size: 0x8, addend: 0x0, symName: __ZNSt10unique_ptrI8ParticleSt14default_deleteIS0_EEC1I6PhotonS1_IS5_EvEEOS_IT_T0_E, symObjAddr: 0x1CB0, symBinAddr: 0x100006424, symSize: 0x50 }
  - { offsetInCU: 0x1BEB3, offset: 0x1BEB3, size: 0x8, addend: 0x0, symName: __ZNSt15__uniq_ptr_dataI8ParticleSt14default_deleteIS0_ELb1ELb1EECI1St15__uniq_ptr_implIS0_S2_EIS1_I6PhotonEEEPS0_OT_, symObjAddr: 0x1C80, symBinAddr: 0x1000063F4, symSize: 0x30 }
  - { offsetInCU: 0x1BEE2, offset: 0x1BEE2, size: 0x8, addend: 0x0, symName: __ZNSt10unique_ptrI6PhotonSt14default_deleteIS0_EED1Ev, symObjAddr: 0x1C18, symBinAddr: 0x10000638C, symSize: 0x68 }
  - { offsetInCU: 0x1BEFD, offset: 0x1BEFD, size: 0x8, addend: 0x0, symName: __ZSt11make_uniqueI6PhotonJiSt6vectorIdSaIdEEEENSt9_MakeUniqIT_E15__single_objectEDpOT0_, symObjAddr: 0x1B64, symBinAddr: 0x1000062D8, symSize: 0xB4 }
  - { offsetInCU: 0x1BF45, offset: 0x1BF45, size: 0x8, addend: 0x0, symName: __ZSt11make_uniqueI4MuonJiSt6vectorIdSaIdEEbEENSt9_MakeUniqIT_E15__single_objectEDpOT0_, symObjAddr: 0x1A94, symBinAddr: 0x100006208, symSize: 0xD0 }
  - { offsetInCU: 0x1C022, offset: 0x1C022, size: 0x8, addend: 0x0, symName: __ZNSt10unique_ptrI8ParticleSt14default_deleteIS0_EEC1I4MuonS1_IS5_EvEEOS_IT_T0_E, symObjAddr: 0x1A44, symBinAddr: 0x1000061B8, symSize: 0x50 }
  - { offsetInCU: 0x1C0B1, offset: 0x1C0B1, size: 0x8, addend: 0x0, symName: __ZNSt15__uniq_ptr_dataI8ParticleSt14default_deleteIS0_ELb1ELb1EECI1St15__uniq_ptr_implIS0_S2_EIS1_I4MuonEEEPS0_OT_, symObjAddr: 0x1A14, symBinAddr: 0x100006188, symSize: 0x30 }
  - { offsetInCU: 0x1C0E0, offset: 0x1C0E0, size: 0x8, addend: 0x0, symName: __ZNSt10unique_ptrI4MuonSt14default_deleteIS0_EED1Ev, symObjAddr: 0x19AC, symBinAddr: 0x100006120, symSize: 0x68 }
  - { offsetInCU: 0x1C0FD, offset: 0x1C0FD, size: 0x8, addend: 0x0, symName: __ZSt11make_uniqueI4MuonJiSt6vectorIdSaIdEEEENSt9_MakeUniqIT_E15__single_objectEDpOT0_, symObjAddr: 0x18F4, symBinAddr: 0x100006068, symSize: 0xB8 }
  - { offsetInCU: 0x1C145, offset: 0x1C145, size: 0x8, addend: 0x0, symName: __ZSt11make_uniqueI8ElectronJiSt6vectorIdSaIdEEbEENSt9_MakeUniqIT_E15__single_objectEDpOT0_, symObjAddr: 0x1824, symBinAddr: 0x100005F98, symSize: 0xD0 }
  - { offsetInCU: 0x1C19E, offset: 0x1C19E, size: 0x8, addend: 0x0, symName: __ZNSt6vectorISt10unique_ptrI8ParticleSt14default_deleteIS1_EESaIS4_EE9push_backEOS4_, symObjAddr: 0x17F4, symBinAddr: 0x100005F68, symSize: 0x30 }
  - { offsetInCU: 0x1C23B, offset: 0x1C23B, size: 0x8, addend: 0x0, symName: __ZNSt10unique_ptrI8ParticleSt14default_deleteIS0_EED1Ev, symObjAddr: 0x178C, symBinAddr: 0x100005F00, symSize: 0x68 }
  - { offsetInCU: 0x1C2E0, offset: 0x1C2E0, size: 0x8, addend: 0x0, symName: __ZNSt10unique_ptrI8ParticleSt14default_deleteIS0_EEC1I8ElectronS1_IS5_EvEEOS_IT_T0_E, symObjAddr: 0x173C, symBinAddr: 0x100005EB0, symSize: 0x50 }
  - { offsetInCU: 0x1C36F, offset: 0x1C36F, size: 0x8, addend: 0x0, symName: __ZNSt15__uniq_ptr_dataI8ParticleSt14default_deleteIS0_ELb1ELb1EECI1St15__uniq_ptr_implIS0_S2_EIS1_I8ElectronEEEPS0_OT_, symObjAddr: 0x170C, symBinAddr: 0x100005E80, symSize: 0x30 }
  - { offsetInCU: 0x1C39E, offset: 0x1C39E, size: 0x8, addend: 0x0, symName: __ZNSt10unique_ptrI8ElectronSt14default_deleteIS0_EED1Ev, symObjAddr: 0x16A4, symBinAddr: 0x100005E18, symSize: 0x68 }
  - { offsetInCU: 0x1C3B7, offset: 0x1C3B7, size: 0x8, addend: 0x0, symName: __ZSt11make_uniqueI8ElectronJiSt6vectorIdSaIdEEEENSt9_MakeUniqIT_E15__single_objectEDpOT0_, symObjAddr: 0x15EC, symBinAddr: 0x100005D60, symSize: 0xB8 }
  - { offsetInCU: 0x1C438, offset: 0x1C438, size: 0x8, addend: 0x0, symName: __ZNSt6vectorIdSaIdEEC1EOS1_, symObjAddr: 0x15C4, symBinAddr: 0x100005D38, symSize: 0x28 }
  - { offsetInCU: 0x1C488, offset: 0x1C488, size: 0x8, addend: 0x0, symName: __ZNSt12_Vector_baseIdSaIdEEC2EOS1_, symObjAddr: 0x159C, symBinAddr: 0x100005D10, symSize: 0x28 }
  - { offsetInCU: 0x1C4E4, offset: 0x1C4E4, size: 0x8, addend: 0x0, symName: __ZNSt12_Vector_baseIdSaIdEE12_Vector_implD1Ev, symObjAddr: 0x157C, symBinAddr: 0x100005CF0, symSize: 0x20 }
  - { offsetInCU: 0x1C514, offset: 0x1C514, size: 0x8, addend: 0x0, symName: __ZNSt6vectorIdSaIdEED1Ev, symObjAddr: 0x152C, symBinAddr: 0x100005CA0, symSize: 0x50 }
  - { offsetInCU: 0x1C585, offset: 0x1C585, size: 0x8, addend: 0x0, symName: __ZNSt6vectorIdSaIdEEC1ESt16initializer_listIdERKS0_, symObjAddr: 0x14BC, symBinAddr: 0x100005C30, symSize: 0x70 }
  - { offsetInCU: 0x1C5B3, offset: 0x1C5B3, size: 0x8, addend: 0x0, symName: __ZNSaIdED1Ev, symObjAddr: 0x149C, symBinAddr: 0x100005C10, symSize: 0x20 }
  - { offsetInCU: 0x1C5DB, offset: 0x1C5DB, size: 0x8, addend: 0x0, symName: __ZNSaIdED2Ev, symObjAddr: 0x147C, symBinAddr: 0x100005BF0, symSize: 0x20 }
  - { offsetInCU: 0x1C617, offset: 0x1C617, size: 0x8, addend: 0x0, symName: __ZNSaIdEC1Ev, symObjAddr: 0x145C, symBinAddr: 0x100005BD0, symSize: 0x20 }
  - { offsetInCU: 0x1C6C2, offset: 0x1C6C2, size: 0x8, addend: 0x0, symName: __ZNSt10unique_ptrI11SubDetectorSt14default_deleteIS0_EEC1I11MuonChamberS1_IS5_EvEEOS_IT_T0_E, symObjAddr: 0x140C, symBinAddr: 0x100005B80, symSize: 0x50 }
  - { offsetInCU: 0x1C751, offset: 0x1C751, size: 0x8, addend: 0x0, symName: __ZNSt15__uniq_ptr_dataI11SubDetectorSt14default_deleteIS0_ELb1ELb1EECI1St15__uniq_ptr_implIS0_S2_EIS1_I11MuonChamberEEEPS0_OT_, symObjAddr: 0x13DC, symBinAddr: 0x100005B50, symSize: 0x30 }
  - { offsetInCU: 0x1C77C, offset: 0x1C77C, size: 0x8, addend: 0x0, symName: __ZNSt10unique_ptrI11MuonChamberSt14default_deleteIS0_EED1Ev, symObjAddr: 0x1374, symBinAddr: 0x100005AE8, symSize: 0x68 }
  - { offsetInCU: 0x1C791, offset: 0x1C791, size: 0x8, addend: 0x0, symName: __ZSt11make_uniqueI11MuonChamberJRA12_KciEENSt9_MakeUniqIT_E15__single_objectEDpOT0_, symObjAddr: 0x1294, symBinAddr: 0x100005A08, symSize: 0xE0 }
  - { offsetInCU: 0x1C86D, offset: 0x1C86D, size: 0x8, addend: 0x0, symName: __ZNSt10unique_ptrI11SubDetectorSt14default_deleteIS0_EEC1I11CalorimeterS1_IS5_EvEEOS_IT_T0_E, symObjAddr: 0x1244, symBinAddr: 0x1000059B8, symSize: 0x50 }
  - { offsetInCU: 0x1C8FC, offset: 0x1C8FC, size: 0x8, addend: 0x0, symName: __ZNSt15__uniq_ptr_dataI11SubDetectorSt14default_deleteIS0_ELb1ELb1EECI1St15__uniq_ptr_implIS0_S2_EIS1_I11CalorimeterEEEPS0_OT_, symObjAddr: 0x1214, symBinAddr: 0x100005988, symSize: 0x30 }
  - { offsetInCU: 0x1C927, offset: 0x1C927, size: 0x8, addend: 0x0, symName: __ZNSt10unique_ptrI11CalorimeterSt14default_deleteIS0_EED1Ev, symObjAddr: 0x11AC, symBinAddr: 0x100005920, symSize: 0x68 }
  - { offsetInCU: 0x1C93C, offset: 0x1C93C, size: 0x8, addend: 0x0, symName: __ZSt11make_uniqueI11CalorimeterJRA24_KciEENSt9_MakeUniqIT_E15__single_objectEDpOT0_, symObjAddr: 0x10CC, symBinAddr: 0x100005840, symSize: 0xE0 }
  - { offsetInCU: 0x1C9F1, offset: 0x1C9F1, size: 0x8, addend: 0x0, symName: __ZNSt10unique_ptrI11SubDetectorSt14default_deleteIS0_EED1Ev, symObjAddr: 0x1064, symBinAddr: 0x1000057D8, symSize: 0x68 }
  - { offsetInCU: 0x1CA95, offset: 0x1CA95, size: 0x8, addend: 0x0, symName: __ZNSt10unique_ptrI11SubDetectorSt14default_deleteIS0_EEC1I7TrackerS1_IS5_EvEEOS_IT_T0_E, symObjAddr: 0x1014, symBinAddr: 0x100005788, symSize: 0x50 }
  - { offsetInCU: 0x1CB24, offset: 0x1CB24, size: 0x8, addend: 0x0, symName: __ZNSt15__uniq_ptr_dataI11SubDetectorSt14default_deleteIS0_ELb1ELb1EECI1St15__uniq_ptr_implIS0_S2_EIS1_I7TrackerEEEPS0_OT_, symObjAddr: 0xFE4, symBinAddr: 0x100005758, symSize: 0x30 }
  - { offsetInCU: 0x1CB4F, offset: 0x1CB4F, size: 0x8, addend: 0x0, symName: __ZNSt10unique_ptrI7TrackerSt14default_deleteIS0_EED1Ev, symObjAddr: 0xF7C, symBinAddr: 0x1000056F0, symSize: 0x68 }
  - { offsetInCU: 0x1CB69, offset: 0x1CB69, size: 0x8, addend: 0x0, symName: __ZSt11make_uniqueI7TrackerJRA8_KciEENSt9_MakeUniqIT_E15__single_objectEDpOT0_, symObjAddr: 0xE9C, symBinAddr: 0x100005610, symSize: 0xE0 }
  - { offsetInCU: 0x1CBB5, offset: 0x1CBB5, size: 0x8, addend: 0x0, symName: __ZNKSt10unique_ptrI8DetectorSt14default_deleteIS0_EEptEv, symObjAddr: 0xE80, symBinAddr: 0x1000055F4, symSize: 0x1C }
  - { offsetInCU: 0x1CC42, offset: 0x1CC42, size: 0x8, addend: 0x0, symName: __ZNSt10unique_ptrI8DetectorSt14default_deleteIS0_EED1Ev, symObjAddr: 0xE18, symBinAddr: 0x10000558C, symSize: 0x68 }
  - { offsetInCU: 0x1CC5B, offset: 0x1CC5B, size: 0x8, addend: 0x0, symName: __ZSt11make_uniqueI8DetectorJRA4_KcEENSt9_MakeUniqIT_E15__single_objectEDpOT0_, symObjAddr: 0xD4C, symBinAddr: 0x1000054C0, symSize: 0xCC }
  - { offsetInCU: 0x1CD01, offset: 0x1CD01, size: 0x8, addend: 0x0, symName: __ZNSt6vectorISt10unique_ptrI8ParticleSt14default_deleteIS1_EESaIS4_EED1Ev, symObjAddr: 0xCFC, symBinAddr: 0x100005470, symSize: 0x50 }
  - { offsetInCU: 0x1CD4D, offset: 0x1CD4D, size: 0x8, addend: 0x0, symName: __ZNSt12_Vector_baseISt10unique_ptrI8ParticleSt14default_deleteIS1_EESaIS4_EED2Ev, symObjAddr: 0xCAC, symBinAddr: 0x100005420, symSize: 0x50 }
  - { offsetInCU: 0x1CD7D, offset: 0x1CD7D, size: 0x8, addend: 0x0, symName: __ZNSaISt10unique_ptrI8ParticleSt14default_deleteIS0_EEED2Ev, symObjAddr: 0xC8C, symBinAddr: 0x100005400, symSize: 0x20 }
  - { offsetInCU: 0x1CDDC, offset: 0x1CDDC, size: 0x8, addend: 0x0, symName: __ZNSt12_Vector_baseISt10unique_ptrI8ParticleSt14default_deleteIS1_EESaIS4_EE12_Vector_implC1Ev, symObjAddr: 0xC64, symBinAddr: 0x1000053D8, symSize: 0x28 }
  - { offsetInCU: 0x1CE0E, offset: 0x1CE0E, size: 0x8, addend: 0x0, symName: __ZNSt7__cxx1112basic_stringIcSt11char_traitsIcESaIcEE12_Alloc_hiderD1Ev, symObjAddr: 0xC44, symBinAddr: 0x1000053B8, symSize: 0x20 }
  - { offsetInCU: 0x1CDEA, offset: 0x1CDEA, size: 0x8, addend: 0x0, symName: __ZN9__gnu_cxx11char_traitsIcE6lengthEPKc, symObjAddr: 0xBF0, symBinAddr: 0x100005364, symSize: 0x54 }
  - { offsetInCU: 0x1CE21, offset: 0x1CE21, size: 0x8, addend: 0x0, symName: __ZN9__gnu_cxx11char_traitsIcE2eqERKcS3_, symObjAddr: 0xBC0, symBinAddr: 0x100005334, symSize: 0x30 }
  - { offsetInCU: 0x1CE60, offset: 0x1CE60, size: 0x8, addend: 0x0, symName: _main, symObjAddr: 0xB8, symBinAddr: 0x10000482C, symSize: 0xB08 }
  - { offsetInCU: 0x1CF77, offset: 0x1CF77, size: 0x8, addend: 0x0, symName: __ZNSt6vectorISt10unique_ptrI8ParticleSt14default_deleteIS1_EESaIS4_EEC1Ev, symObjAddr: 0x98, symBinAddr: 0x10000480C, symSize: 0x20 }
  - { offsetInCU: 0x1CFBA, offset: 0x1CFBA, size: 0x8, addend: 0x0, symName: __ZNSt12_Vector_baseISt10unique_ptrI8ParticleSt14default_deleteIS1_EESaIS4_EEC2Ev, symObjAddr: 0x78, symBinAddr: 0x1000047EC, symSize: 0x20 }
  - { offsetInCU: 0x1D011, offset: 0x1D011, size: 0x8, addend: 0x0, symName: __ZNSt12_Vector_baseISt10unique_ptrI8ParticleSt14default_deleteIS1_EESaIS4_EE12_Vector_implD1Ev, symObjAddr: 0x58, symBinAddr: 0x1000047CC, symSize: 0x20 }
  - { offsetInCU: 0x1CFD6, offset: 0x1CFD6, size: 0x8, addend: 0x0, symName: __ZNSt11char_traitsIcE6lengthEPKc, symObjAddr: 0x18, symBinAddr: 0x10000478C, symSize: 0x40 }
  - { offsetInCU: 0x1D04F, offset: 0x1D04F, size: 0x8, addend: 0x0, symName: __ZnwmPv, symObjAddr: 0x0, symBinAddr: 0x100004774, symSize: 0x18 }
  - { offsetInCU: 0x5B88, offset: 0x22BFE, size: 0x8, addend: 0x0, symName: __ZStL8__ioinit, symObjAddr: 0x3BC20, symBinAddr: 0x100024001, symSize: 0x0 }
  - { offsetInCU: 0x61EF, offset: 0x23265, size: 0x8, addend: 0x0, symName: __GLOBAL__sub_I_Detector.cpp, symObjAddr: 0x2058, symBinAddr: 0x10000C830, symSize: 0x1C }
  - { offsetInCU: 0x6214, offset: 0x2328A, size: 0x8, addend: 0x0, symName: __Z41__static_initialization_and_destruction_0ii, symObjAddr: 0x1FF8, symBinAddr: 0x10000C7D0, symSize: 0x60 }
  - { offsetInCU: 0x6223, offset: 0x23299, size: 0x8, addend: 0x0, symName: __ZSt19__relocate_object_aISt10unique_ptrI11SubDetectorSt14default_deleteIS1_EES4_SaIS4_EEvPT_PT0_RT1_, symObjAddr: 0x1C60, symBinAddr: 0x10000C784, symSize: 0x4C }
  - { offsetInCU: 0x628A, offset: 0x23300, size: 0x8, addend: 0x0, symName: __ZNK9__gnu_cxx13new_allocatorISt10unique_ptrI11SubDetectorSt14default_deleteIS2_EEE8max_sizeEv, symObjAddr: 0x1C44, symBinAddr: 0x10000C768, symSize: 0x1C }
  - { offsetInCU: 0x62AE, offset: 0x23324, size: 0x8, addend: 0x0, symName: __ZSt14__relocate_a_1IPSt10unique_ptrI11SubDetectorSt14default_deleteIS1_EES5_SaIS4_EET0_T_S8_S7_RT1_, symObjAddr: 0x1B88, symBinAddr: 0x10000C6E4, symSize: 0x84 }
  - { offsetInCU: 0x6331, offset: 0x233A7, size: 0x8, addend: 0x0, symName: __ZSt12__niter_baseIPSt10unique_ptrI11SubDetectorSt14default_deleteIS1_EEET_S6_, symObjAddr: 0x1B74, symBinAddr: 0x10000C6D0, symSize: 0x14 }
  - { offsetInCU: 0x6362, offset: 0x233D8, size: 0x8, addend: 0x0, symName: __ZNSt16allocator_traitsISaISt10unique_ptrI11SubDetectorSt14default_deleteIS1_EEEE8max_sizeERKS5_, symObjAddr: 0x1B20, symBinAddr: 0x10000C6B4, symSize: 0x1C }
  - { offsetInCU: 0x638A, offset: 0x23400, size: 0x8, addend: 0x0, symName: __ZNSt10_Head_baseILm0EP11SubDetectorLb0EE7_M_headERKS2_, symObjAddr: 0x1AF0, symBinAddr: 0x10000C6A0, symSize: 0x14 }
  - { offsetInCU: 0x63B1, offset: 0x23427, size: 0x8, addend: 0x0, symName: __ZSt12__relocate_aIPSt10unique_ptrI11SubDetectorSt14default_deleteIS1_EES5_SaIS4_EET0_T_S8_S7_RT1_, symObjAddr: 0x1A2C, symBinAddr: 0x10000C644, symSize: 0x5C }
  - { offsetInCU: 0x6428, offset: 0x2349E, size: 0x8, addend: 0x0, symName: __ZN9__gnu_cxx13new_allocatorISt10unique_ptrI11SubDetectorSt14default_deleteIS2_EEE8allocateEmPKv, symObjAddr: 0x19B4, symBinAddr: 0x10000C5CC, symSize: 0x78 }
  - { offsetInCU: 0x6475, offset: 0x234EB, size: 0x8, addend: 0x0, symName: __ZNK9__gnu_cxx13new_allocatorISt10unique_ptrI11SubDetectorSt14default_deleteIS2_EEE11_M_max_sizeEv, symObjAddr: 0x19A0, symBinAddr: 0x10000C5B8, symSize: 0x14 }
  - { offsetInCU: 0x649D, offset: 0x23513, size: 0x8, addend: 0x0, symName: __ZNKSt12_Vector_baseISt10unique_ptrI11SubDetectorSt14default_deleteIS1_EESaIS4_EE19_M_get_Tp_allocatorEv, symObjAddr: 0x198C, symBinAddr: 0x10000C5A4, symSize: 0x14 }
  - { offsetInCU: 0x64C1, offset: 0x23537, size: 0x8, addend: 0x0, symName: __ZNSt6vectorISt10unique_ptrI11SubDetectorSt14default_deleteIS1_EESaIS4_EE11_S_max_sizeERKS5_, symObjAddr: 0x1954, symBinAddr: 0x10000C56C, symSize: 0x38 }
  - { offsetInCU: 0x6571, offset: 0x235E7, size: 0x8, addend: 0x0, symName: __ZNSt11_Tuple_implILm1EJSt14default_deleteI11SubDetectorEEEC2EOS3_, symObjAddr: 0x1920, symBinAddr: 0x10000C554, symSize: 0x18 }
  - { offsetInCU: 0x6560, offset: 0x235D6, size: 0x8, addend: 0x0, symName: __ZSt4moveIRSt5tupleIJP11SubDetectorSt14default_deleteIS1_EEEEONSt16remove_referenceIT_E4typeEOS8_, symObjAddr: 0x190C, symBinAddr: 0x10000C540, symSize: 0x14 }
  - { offsetInCU: 0x6590, offset: 0x23606, size: 0x8, addend: 0x0, symName: __ZNSt11_Tuple_implILm0EJP11SubDetectorSt14default_deleteIS0_EEE7_M_headERKS4_, symObjAddr: 0x18F0, symBinAddr: 0x10000C524, symSize: 0x1C }
  - { offsetInCU: 0x65BC, offset: 0x23632, size: 0x8, addend: 0x0, symName: __ZN9__gnu_cxx13new_allocatorISt10unique_ptrI11SubDetectorSt14default_deleteIS2_EEE7destroyIS5_EEvPT_, symObjAddr: 0x1864, symBinAddr: 0x10000C500, symSize: 0x24 }
  - { offsetInCU: 0x65F8, offset: 0x2366E, size: 0x8, addend: 0x0, symName: __ZNSt6vectorISt10unique_ptrI11SubDetectorSt14default_deleteIS1_EESaIS4_EE14_S_do_relocateEPS4_S7_S7_RS5_St17integral_constantIbLb1EE, symObjAddr: 0x182C, symBinAddr: 0x10000C4C8, symSize: 0x38 }
  - { offsetInCU: 0x6658, offset: 0x236CE, size: 0x8, addend: 0x0, symName: __ZNSt16allocator_traitsISaISt10unique_ptrI11SubDetectorSt14default_deleteIS1_EEEE8allocateERS5_m, symObjAddr: 0x1804, symBinAddr: 0x10000C4A0, symSize: 0x28 }
  - { offsetInCU: 0x6694, offset: 0x2370A, size: 0x8, addend: 0x0, symName: __ZNKSt6vectorISt10unique_ptrI11SubDetectorSt14default_deleteIS1_EESaIS4_EE4sizeEv, symObjAddr: 0x17A4, symBinAddr: 0x10000C478, symSize: 0x28 }
  - { offsetInCU: 0x66BC, offset: 0x23732, size: 0x8, addend: 0x0, symName: __ZNKSt6vectorISt10unique_ptrI11SubDetectorSt14default_deleteIS1_EESaIS4_EE8max_sizeEv, symObjAddr: 0x1784, symBinAddr: 0x10000C458, symSize: 0x20 }
  - { offsetInCU: 0x6748, offset: 0x237BE, size: 0x8, addend: 0x0, symName: __ZNSt15__uniq_ptr_implI11SubDetectorSt14default_deleteIS0_EEC2EOS3_, symObjAddr: 0x173C, symBinAddr: 0x10000C410, symSize: 0x48 }
  - { offsetInCU: 0x6789, offset: 0x237FF, size: 0x8, addend: 0x0, symName: __ZNSt5tupleIJP11SubDetectorSt14default_deleteIS0_EEEC1EOS4_, symObjAddr: 0x1714, symBinAddr: 0x10000C3E8, symSize: 0x28 }
  - { offsetInCU: 0x67DD, offset: 0x23853, size: 0x8, addend: 0x0, symName: __ZNSt11_Tuple_implILm0EJP11SubDetectorSt14default_deleteIS0_EEEC2EOS4_, symObjAddr: 0x16DC, symBinAddr: 0x10000C3B0, symSize: 0x38 }
  - { offsetInCU: 0x67C2, offset: 0x23838, size: 0x8, addend: 0x0, symName: __ZSt12__get_helperILm0EP11SubDetectorJSt14default_deleteIS0_EEERKT0_RKSt11_Tuple_implIXT_EJS4_DpT1_EE, symObjAddr: 0x16C0, symBinAddr: 0x10000C394, symSize: 0x1C }
  - { offsetInCU: 0x6808, offset: 0x2387E, size: 0x8, addend: 0x0, symName: __ZSt8_DestroyISt10unique_ptrI11SubDetectorSt14default_deleteIS1_EEEvPT_, symObjAddr: 0x16A0, symBinAddr: 0x10000C374, symSize: 0x20 }
  - { offsetInCU: 0x6838, offset: 0x238AE, size: 0x8, addend: 0x0, symName: __ZSt11__addressofISt10unique_ptrI11SubDetectorSt14default_deleteIS1_EEEPT_RS5_, symObjAddr: 0x168C, symBinAddr: 0x10000C360, symSize: 0x14 }
  - { offsetInCU: 0x686C, offset: 0x238E2, size: 0x8, addend: 0x0, symName: __ZNK9__gnu_cxx17__normal_iteratorIPSt10unique_ptrI11SubDetectorSt14default_deleteIS2_EESt6vectorIS5_SaIS5_EEEdeEv, symObjAddr: 0x1674, symBinAddr: 0x10000C348, symSize: 0x18 }
  - { offsetInCU: 0x6894, offset: 0x2390A, size: 0x8, addend: 0x0, symName: __ZNK9__gnu_cxx17__normal_iteratorIPSt10unique_ptrI11SubDetectorSt14default_deleteIS2_EESt6vectorIS5_SaIS5_EEEmiEl, symObjAddr: 0x1630, symBinAddr: 0x10000C304, symSize: 0x44 }
  - { offsetInCU: 0x68C8, offset: 0x2393E, size: 0x8, addend: 0x0, symName: __ZNSt16allocator_traitsISaISt10unique_ptrI11SubDetectorSt14default_deleteIS1_EEEE7destroyIS4_EEvRS5_PT_, symObjAddr: 0x1608, symBinAddr: 0x10000C2DC, symSize: 0x28 }
  - { offsetInCU: 0x690D, offset: 0x23983, size: 0x8, addend: 0x0, symName: __ZNK9__gnu_cxx17__normal_iteratorIPSt10unique_ptrI11SubDetectorSt14default_deleteIS2_EESt6vectorIS5_SaIS5_EEE4baseEv, symObjAddr: 0x15F4, symBinAddr: 0x10000C2C8, symSize: 0x14 }
  - { offsetInCU: 0x6931, offset: 0x239A7, size: 0x8, addend: 0x0, symName: __ZNSt6vectorISt10unique_ptrI11SubDetectorSt14default_deleteIS1_EESaIS4_EE11_S_relocateEPS4_S7_S7_RS5_, symObjAddr: 0x15C0, symBinAddr: 0x10000C294, symSize: 0x34 }
  - { offsetInCU: 0x698D, offset: 0x23A03, size: 0x8, addend: 0x0, symName: __ZNSt12_Vector_baseISt10unique_ptrI11SubDetectorSt14default_deleteIS1_EESaIS4_EE11_M_allocateEm, symObjAddr: 0x1588, symBinAddr: 0x10000C25C, symSize: 0x38 }
  - { offsetInCU: 0x69C7, offset: 0x23A3D, size: 0x8, addend: 0x0, symName: __ZN9__gnu_cxxmiIPSt10unique_ptrI11SubDetectorSt14default_deleteIS2_EESt6vectorIS5_SaIS5_EEEENS_17__normal_iteratorIT_T0_E15difference_typeERKSD_SG_, symObjAddr: 0x1548, symBinAddr: 0x10000C21C, symSize: 0x40 }
  - { offsetInCU: 0x6A15, offset: 0x23A8B, size: 0x8, addend: 0x0, symName: __ZNSt6vectorISt10unique_ptrI11SubDetectorSt14default_deleteIS1_EESaIS4_EE5beginEv, symObjAddr: 0x1524, symBinAddr: 0x10000C1F8, symSize: 0x24 }
  - { offsetInCU: 0x6A3D, offset: 0x23AB3, size: 0x8, addend: 0x0, symName: __ZNKSt6vectorISt10unique_ptrI11SubDetectorSt14default_deleteIS1_EESaIS4_EE12_M_check_lenEmPKc, symObjAddr: 0x1458, symBinAddr: 0x10000C12C, symSize: 0xCC }
  - { offsetInCU: 0x6B2B, offset: 0x23BA1, size: 0x8, addend: 0x0, symName: __ZN9__gnu_cxx17__normal_iteratorIPSt10unique_ptrI11SubDetectorSt14default_deleteIS2_EESt6vectorIS5_SaIS5_EEEC1ERKS6_, symObjAddr: 0x1430, symBinAddr: 0x10000C104, symSize: 0x28 }
  - { offsetInCU: 0x6AE6, offset: 0x23B5C, size: 0x8, addend: 0x0, symName: __ZN9__gnu_cxx13new_allocatorISt10unique_ptrI11SubDetectorSt14default_deleteIS2_EEE9constructIS5_JS5_EEEvPT_DpOT0_, symObjAddr: 0x13E4, symBinAddr: 0x10000C0B8, symSize: 0x4C }
  - { offsetInCU: 0x6B97, offset: 0x23C0D, size: 0x8, addend: 0x0, symName: __ZNSt10unique_ptrI11SubDetectorSt14default_deleteIS0_EEC1EOS3_, symObjAddr: 0x13BC, symBinAddr: 0x10000C090, symSize: 0x28 }
  - { offsetInCU: 0x6BED, offset: 0x23C63, size: 0x8, addend: 0x0, symName: __ZNSt15__uniq_ptr_dataI11SubDetectorSt14default_deleteIS0_ELb1ELb1EEC1EOS3_, symObjAddr: 0x1394, symBinAddr: 0x10000C068, symSize: 0x28 }
  - { offsetInCU: 0x6BD3, offset: 0x23C49, size: 0x8, addend: 0x0, symName: __ZSt3getILm0EJP11SubDetectorSt14default_deleteIS0_EEERKNSt13tuple_elementIXT_ESt5tupleIJDpT0_EEE4typeERKS8_, symObjAddr: 0x1378, symBinAddr: 0x10000C04C, symSize: 0x1C }
  - { offsetInCU: 0x6C15, offset: 0x23C8B, size: 0x8, addend: 0x0, symName: __ZNSt12_Destroy_auxILb0EE9__destroyIPSt10unique_ptrI11SubDetectorSt14default_deleteIS3_EEEEvT_S8_, symObjAddr: 0x132C, symBinAddr: 0x10000C000, symSize: 0x4C }
  - { offsetInCU: 0x6C58, offset: 0x23CCE, size: 0x8, addend: 0x0, symName: __ZN9__gnu_cxx13new_allocatorISt10unique_ptrI11SubDetectorSt14default_deleteIS2_EEE10deallocateEPS5_m, symObjAddr: 0x12FC, symBinAddr: 0x10000BFD0, symSize: 0x30 }
  - { offsetInCU: 0x6C9E, offset: 0x23D14, size: 0x8, addend: 0x0, symName: __ZNSt6vectorISt10unique_ptrI11SubDetectorSt14default_deleteIS1_EESaIS4_EE4backEv, symObjAddr: 0x12C4, symBinAddr: 0x10000BF98, symSize: 0x38 }
  - { offsetInCU: 0x6CC6, offset: 0x23D3C, size: 0x8, addend: 0x0, symName: __ZNSt6vectorISt10unique_ptrI11SubDetectorSt14default_deleteIS1_EESaIS4_EE17_M_realloc_insertIJS4_EEEvN9__gnu_cxx17__normal_iteratorIPS4_S6_EEDpOT_, symObjAddr: 0x114C, symBinAddr: 0x10000BE20, symSize: 0x178 }
  - { offsetInCU: 0x6D7B, offset: 0x23DF1, size: 0x8, addend: 0x0, symName: __ZNSt6vectorISt10unique_ptrI11SubDetectorSt14default_deleteIS1_EESaIS4_EE3endEv, symObjAddr: 0x1124, symBinAddr: 0x10000BDF8, symSize: 0x28 }
  - { offsetInCU: 0x6D9F, offset: 0x23E15, size: 0x8, addend: 0x0, symName: __ZNSt16allocator_traitsISaISt10unique_ptrI11SubDetectorSt14default_deleteIS1_EEEE9constructIS4_JS4_EEEvRS5_PT_DpOT0_, symObjAddr: 0x10EC, symBinAddr: 0x10000BDC0, symSize: 0x38 }
  - { offsetInCU: 0x6E00, offset: 0x23E76, size: 0x8, addend: 0x0, symName: __ZSt7forwardISt10unique_ptrI11SubDetectorSt14default_deleteIS1_EEEOT_RNSt16remove_referenceIS5_E4typeE, symObjAddr: 0x10D8, symBinAddr: 0x10000BDAC, symSize: 0x14 }
  - { offsetInCU: 0x6E34, offset: 0x23EAA, size: 0x8, addend: 0x0, symName: __ZNKSt15__uniq_ptr_implI11SubDetectorSt14default_deleteIS0_EE6_M_ptrEv, symObjAddr: 0x10B8, symBinAddr: 0x10000BD8C, symSize: 0x20 }
  - { offsetInCU: 0x6E58, offset: 0x23ECE, size: 0x8, addend: 0x0, symName: __ZSt8_DestroyIPSt10unique_ptrI11SubDetectorSt14default_deleteIS1_EEEvT_S6_, symObjAddr: 0x1090, symBinAddr: 0x10000BD64, symSize: 0x28 }
  - { offsetInCU: 0x6E97, offset: 0x23F0D, size: 0x8, addend: 0x0, symName: __ZNSt16allocator_traitsISaISt10unique_ptrI11SubDetectorSt14default_deleteIS1_EEEE10deallocateERS5_PS4_m, symObjAddr: 0x1060, symBinAddr: 0x10000BD34, symSize: 0x30 }
  - { offsetInCU: 0x6F4E, offset: 0x23FC4, size: 0x8, addend: 0x0, symName: __ZN9__gnu_cxx13new_allocatorISt10unique_ptrI11SubDetectorSt14default_deleteIS2_EEEC2Ev, symObjAddr: 0x104C, symBinAddr: 0x10000BD20, symSize: 0x14 }
  - { offsetInCU: 0x6F1F, offset: 0x23F95, size: 0x8, addend: 0x0, symName: __ZNK9__gnu_cxx17__normal_iteratorIPKSt10unique_ptrI11SubDetectorSt14default_deleteIS2_EESt6vectorIS5_SaIS5_EEE4baseEv, symObjAddr: 0x1038, symBinAddr: 0x10000BD0C, symSize: 0x14 }
  - { offsetInCU: 0x6FDE, offset: 0x24054, size: 0x8, addend: 0x0, symName: __ZN9__gnu_cxx17__normal_iteratorIPKSt10unique_ptrI11SubDetectorSt14default_deleteIS2_EESt6vectorIS5_SaIS5_EEEC1ERKS7_, symObjAddr: 0x1010, symBinAddr: 0x10000BCE4, symSize: 0x28 }
  - { offsetInCU: 0x6F9A, offset: 0x24010, size: 0x8, addend: 0x0, symName: __ZN9__gnu_cxxeqIPKSt10unique_ptrI11SubDetectorSt14default_deleteIS2_EESt6vectorIS5_SaIS5_EEEEbRKNS_17__normal_iteratorIT_T0_EESG_, symObjAddr: 0xFCC, symBinAddr: 0x10000BCA0, symSize: 0x44 }
  - { offsetInCU: 0x6FE8, offset: 0x2405E, size: 0x8, addend: 0x0, symName: __ZNSt6vectorISt10unique_ptrI11SubDetectorSt14default_deleteIS1_EESaIS4_EE12emplace_backIJS4_EEERS4_DpOT_, symObjAddr: 0xF2C, symBinAddr: 0x10000BC00, symSize: 0xA0 }
  - { offsetInCU: 0x7029, offset: 0x2409F, size: 0x8, addend: 0x0, symName: __ZNKSt10unique_ptrI11SubDetectorSt14default_deleteIS0_EE3getEv, symObjAddr: 0xF10, symBinAddr: 0x10000BBE4, symSize: 0x1C }
  - { offsetInCU: 0x704D, offset: 0x240C3, size: 0x8, addend: 0x0, symName: __ZSt8_DestroyIPSt10unique_ptrI11SubDetectorSt14default_deleteIS1_EES4_EvT_S6_RSaIT0_E, symObjAddr: 0xEE4, symBinAddr: 0x10000BBB8, symSize: 0x2C }
  - { offsetInCU: 0x70A3, offset: 0x24119, size: 0x8, addend: 0x0, symName: __ZNSt12_Vector_baseISt10unique_ptrI11SubDetectorSt14default_deleteIS1_EESaIS4_EE19_M_get_Tp_allocatorEv, symObjAddr: 0xED0, symBinAddr: 0x10000BBA4, symSize: 0x14 }
  - { offsetInCU: 0x70CB, offset: 0x24141, size: 0x8, addend: 0x0, symName: __ZNSt12_Vector_baseISt10unique_ptrI11SubDetectorSt14default_deleteIS1_EESaIS4_EE13_M_deallocateEPS4_m, symObjAddr: 0xE94, symBinAddr: 0x10000BB68, symSize: 0x3C }
  - { offsetInCU: 0x7187, offset: 0x241FD, size: 0x8, addend: 0x0, symName: __ZN9__gnu_cxx13new_allocatorISt10unique_ptrI11SubDetectorSt14default_deleteIS2_EEED2Ev, symObjAddr: 0xE80, symBinAddr: 0x10000BB54, symSize: 0x14 }
  - { offsetInCU: 0x71D4, offset: 0x2424A, size: 0x8, addend: 0x0, symName: __ZNSt12_Vector_baseISt10unique_ptrI11SubDetectorSt14default_deleteIS1_EESaIS4_EE17_Vector_impl_dataC2Ev, symObjAddr: 0xE54, symBinAddr: 0x10000BB28, symSize: 0x2C }
  - { offsetInCU: 0x71E8, offset: 0x2425E, size: 0x8, addend: 0x0, symName: __ZNSaISt10unique_ptrI11SubDetectorSt14default_deleteIS0_EEEC2Ev, symObjAddr: 0xE34, symBinAddr: 0x10000BB08, symSize: 0x20 }
  - { offsetInCU: 0x71D0, offset: 0x24246, size: 0x8, addend: 0x0, symName: __ZNK9__gnu_cxx17__normal_iteratorIPKSt10unique_ptrI11SubDetectorSt14default_deleteIS2_EESt6vectorIS5_SaIS5_EEEdeEv, symObjAddr: 0xE1C, symBinAddr: 0x10000BAF0, symSize: 0x18 }
  - { offsetInCU: 0x71F8, offset: 0x2426E, size: 0x8, addend: 0x0, symName: __ZN9__gnu_cxx17__normal_iteratorIPKSt10unique_ptrI11SubDetectorSt14default_deleteIS2_EESt6vectorIS5_SaIS5_EEEppEv, symObjAddr: 0xDF4, symBinAddr: 0x10000BAC8, symSize: 0x28 }
  - { offsetInCU: 0x721C, offset: 0x24292, size: 0x8, addend: 0x0, symName: __ZN9__gnu_cxxneIPKSt10unique_ptrI11SubDetectorSt14default_deleteIS2_EESt6vectorIS5_SaIS5_EEEEbRKNS_17__normal_iteratorIT_T0_EESG_, symObjAddr: 0xDB0, symBinAddr: 0x10000BA84, symSize: 0x44 }
  - { offsetInCU: 0x726A, offset: 0x242E0, size: 0x8, addend: 0x0, symName: __ZNKSt6vectorISt10unique_ptrI11SubDetectorSt14default_deleteIS1_EESaIS4_EE3endEv, symObjAddr: 0xD88, symBinAddr: 0x10000BA5C, symSize: 0x28 }
  - { offsetInCU: 0x7292, offset: 0x24308, size: 0x8, addend: 0x0, symName: __ZNKSt6vectorISt10unique_ptrI11SubDetectorSt14default_deleteIS1_EESaIS4_EE5beginEv, symObjAddr: 0xD64, symBinAddr: 0x10000BA38, symSize: 0x24 }
  - { offsetInCU: 0x72BA, offset: 0x24330, size: 0x8, addend: 0x0, symName: __ZNKSt6vectorISt10unique_ptrI11SubDetectorSt14default_deleteIS1_EESaIS4_EE5emptyEv, symObjAddr: 0xD2C, symBinAddr: 0x10000BA00, symSize: 0x38 }
  - { offsetInCU: 0x72E2, offset: 0x24358, size: 0x8, addend: 0x0, symName: __ZNSt6vectorISt10unique_ptrI11SubDetectorSt14default_deleteIS1_EESaIS4_EE9push_backEOS4_, symObjAddr: 0xCFC, symBinAddr: 0x10000B9D0, symSize: 0x30 }
  - { offsetInCU: 0x731C, offset: 0x24392, size: 0x8, addend: 0x0, symName: __ZSt4moveIRSt10unique_ptrI11SubDetectorSt14default_deleteIS1_EEEONSt16remove_referenceIT_E4typeEOS7_, symObjAddr: 0xCE8, symBinAddr: 0x10000B9BC, symSize: 0x14 }
  - { offsetInCU: 0x734C, offset: 0x243C2, size: 0x8, addend: 0x0, symName: __ZSteqIcSt11char_traitsIcESaIcEEbRKNSt7__cxx1112basic_stringIT_T0_T1_EEPKS5_, symObjAddr: 0xCB8, symBinAddr: 0x10000B98C, symSize: 0x30 }
  - { offsetInCU: 0x73A3, offset: 0x24419, size: 0x8, addend: 0x0, symName: __ZNKSt10unique_ptrI11SubDetectorSt14default_deleteIS0_EEptEv, symObjAddr: 0xC9C, symBinAddr: 0x10000B970, symSize: 0x1C }
  - { offsetInCU: 0x7436, offset: 0x244AC, size: 0x8, addend: 0x0, symName: __ZNSt6vectorISt10unique_ptrI11SubDetectorSt14default_deleteIS1_EESaIS4_EED1Ev, symObjAddr: 0xC4C, symBinAddr: 0x10000B920, symSize: 0x50 }
  - { offsetInCU: 0x7482, offset: 0x244F8, size: 0x8, addend: 0x0, symName: __ZNSt12_Vector_baseISt10unique_ptrI11SubDetectorSt14default_deleteIS1_EESaIS4_EED2Ev, symObjAddr: 0xBFC, symBinAddr: 0x10000B8D0, symSize: 0x50 }
  - { offsetInCU: 0x74B2, offset: 0x24528, size: 0x8, addend: 0x0, symName: __ZNSaISt10unique_ptrI11SubDetectorSt14default_deleteIS0_EEED2Ev, symObjAddr: 0xBDC, symBinAddr: 0x10000B8B0, symSize: 0x20 }
  - { offsetInCU: 0x7511, offset: 0x24587, size: 0x8, addend: 0x0, symName: __ZNSt12_Vector_baseISt10unique_ptrI11SubDetectorSt14default_deleteIS1_EESaIS4_EE12_Vector_implC1Ev, symObjAddr: 0xBB4, symBinAddr: 0x10000B888, symSize: 0x28 }
  - { offsetInCU: 0x74D9, offset: 0x2454F, size: 0x8, addend: 0x0, symName: __ZNK8Detector12pass_throughER8Particle, symObjAddr: 0x598, symBinAddr: 0x10000B26C, symSize: 0x61C }
  - { offsetInCU: 0x764A, offset: 0x246C0, size: 0x8, addend: 0x0, symName: __ZNK8Detector7displayEv, symObjAddr: 0x304, symBinAddr: 0x10000AFD8, symSize: 0x294 }
  - { offsetInCU: 0x7759, offset: 0x247CF, size: 0x8, addend: 0x0, symName: __ZN8Detector3addESt10unique_ptrI11SubDetectorSt14default_deleteIS1_EE, symObjAddr: 0x1AC, symBinAddr: 0x10000AE80, symSize: 0x158 }
  - { offsetInCU: 0x77C6, offset: 0x2483C, size: 0x8, addend: 0x0, symName: __ZN8DetectorD1Ev, symObjAddr: 0x168, symBinAddr: 0x10000AE3C, symSize: 0x44 }
  - { offsetInCU: 0x77EE, offset: 0x24864, size: 0x8, addend: 0x0, symName: __ZN8DetectorD2Ev, symObjAddr: 0x124, symBinAddr: 0x10000ADF8, symSize: 0x44 }
  - { offsetInCU: 0x786D, offset: 0x248E3, size: 0x8, addend: 0x0, symName: __ZN8DetectorC1ENSt7__cxx1112basic_stringIcSt11char_traitsIcESaIcEEE, symObjAddr: 0xD8, symBinAddr: 0x10000ADAC, symSize: 0x4C }
  - { offsetInCU: 0x789E, offset: 0x24914, size: 0x8, addend: 0x0, symName: __ZN8DetectorC2ENSt7__cxx1112basic_stringIcSt11char_traitsIcESaIcEEE, symObjAddr: 0x8C, symBinAddr: 0x10000AD60, symSize: 0x4C }
  - { offsetInCU: 0x78ED, offset: 0x24963, size: 0x8, addend: 0x0, symName: __ZNSt6vectorISt10unique_ptrI11SubDetectorSt14default_deleteIS1_EESaIS4_EEC1Ev, symObjAddr: 0x6C, symBinAddr: 0x10000AD40, symSize: 0x20 }
  - { offsetInCU: 0x7930, offset: 0x249A6, size: 0x8, addend: 0x0, symName: __ZNSt12_Vector_baseISt10unique_ptrI11SubDetectorSt14default_deleteIS1_EESaIS4_EEC2Ev, symObjAddr: 0x4C, symBinAddr: 0x10000AD20, symSize: 0x20 }
  - { offsetInCU: 0x7987, offset: 0x249FD, size: 0x8, addend: 0x0, symName: __ZNSt12_Vector_baseISt10unique_ptrI11SubDetectorSt14default_deleteIS1_EESaIS4_EE12_Vector_implD1Ev, symObjAddr: 0x2C, symBinAddr: 0x10000AD00, symSize: 0x20 }
  - { offsetInCU: 0x7948, offset: 0x249BE, size: 0x8, addend: 0x0, symName: __ZSt12setprecisioni, symObjAddr: 0x18, symBinAddr: 0x10000ACEC, symSize: 0x14 }
  - { offsetInCU: 0x3C63, offset: 0x28644, size: 0x8, addend: 0x0, symName: __ZStL8__ioinit, symObjAddr: 0x29B60, symBinAddr: 0x100024002, symSize: 0x0 }
  - { offsetInCU: 0x4111, offset: 0x28AF2, size: 0x8, addend: 0x0, symName: __GLOBAL__sub_I_Tracker.cpp, symObjAddr: 0xD08, symBinAddr: 0x10000CFFC, symSize: 0x1C }
  - { offsetInCU: 0x4137, offset: 0x28B18, size: 0x8, addend: 0x0, symName: __Z41__static_initialization_and_destruction_0ii, symObjAddr: 0xCA8, symBinAddr: 0x10000CF9C, symSize: 0x60 }
  - { offsetInCU: 0x414A, offset: 0x28B2B, size: 0x8, addend: 0x0, symName: __ZN7Tracker8detectedER8Particle, symObjAddr: 0x700, symBinAddr: 0x10000CF0C, symSize: 0x90 }
  - { offsetInCU: 0x4181, offset: 0x28B62, size: 0x8, addend: 0x0, symName: __ZNK7Tracker12get_materialB5cxx11Ev, symObjAddr: 0x6C8, symBinAddr: 0x10000CED4, symSize: 0x38 }
  - { offsetInCU: 0x41A9, offset: 0x28B8A, size: 0x8, addend: 0x0, symName: __ZNK7Tracker17get_detector_typeB5cxx11Ev, symObjAddr: 0x690, symBinAddr: 0x10000CE9C, symSize: 0x38 }
  - { offsetInCU: 0x41D1, offset: 0x28BB2, size: 0x8, addend: 0x0, symName: __ZNK7Tracker14print_detectorEv, symObjAddr: 0x5F8, symBinAddr: 0x10000CE04, symSize: 0x98 }
  - { offsetInCU: 0x4226, offset: 0x28C07, size: 0x8, addend: 0x0, symName: __ZN7TrackerD0Ev, symObjAddr: 0x5D0, symBinAddr: 0x10000CDDC, symSize: 0x28 }
  - { offsetInCU: 0x424E, offset: 0x28C2F, size: 0x8, addend: 0x0, symName: __ZN7TrackerD1Ev, symObjAddr: 0x5A0, symBinAddr: 0x10000CDAC, symSize: 0x30 }
  - { offsetInCU: 0x4276, offset: 0x28C57, size: 0x8, addend: 0x0, symName: __ZN7TrackerD2Ev, symObjAddr: 0x570, symBinAddr: 0x10000CD7C, symSize: 0x30 }
  - { offsetInCU: 0x42FE, offset: 0x28CDF, size: 0x8, addend: 0x0, symName: __ZN7TrackerC1ENSt7__cxx1112basic_stringIcSt11char_traitsIcESaIcEEEi, symObjAddr: 0x42C, symBinAddr: 0x10000CC38, symSize: 0x144 }
  - { offsetInCU: 0x433A, offset: 0x28D1B, size: 0x8, addend: 0x0, symName: __ZN7TrackerC2ENSt7__cxx1112basic_stringIcSt11char_traitsIcESaIcEEEi, symObjAddr: 0x2E8, symBinAddr: 0x10000CAF4, symSize: 0x144 }
  - { offsetInCU: 0x4356, offset: 0x28D37, size: 0x8, addend: 0x0, symName: __ZN7TrackerC1Ev, symObjAddr: 0x1F0, symBinAddr: 0x10000C9FC, symSize: 0xF8 }
  - { offsetInCU: 0x437F, offset: 0x28D60, size: 0x8, addend: 0x0, symName: __ZN7TrackerC2Ev, symObjAddr: 0xF8, symBinAddr: 0x10000C904, symSize: 0xF8 }
  - { offsetInCU: 0x43CA, offset: 0x28DAB, size: 0x8, addend: 0x0, symName: __ZN11SubDetectorD2Ev, symObjAddr: 0xB4, symBinAddr: 0x10000C8C0, symSize: 0x44 }
  - { offsetInCU: 0x4454, offset: 0x28E35, size: 0x8, addend: 0x0, symName: __ZN11SubDetectorC2ENSt7__cxx1112basic_stringIcSt11char_traitsIcESaIcEEES5_, symObjAddr: 0x40, symBinAddr: 0x10000C84C, symSize: 0x74 }
  - { offsetInCU: 0x3C9A, offset: 0x2CAB6, size: 0x8, addend: 0x0, symName: __ZStL8__ioinit, symObjAddr: 0x2A238, symBinAddr: 0x100024003, symSize: 0x0 }
  - { offsetInCU: 0x4147, offset: 0x2CF63, size: 0x8, addend: 0x0, symName: __GLOBAL__sub_I_Calorimeter.cpp, symObjAddr: 0xE50, symBinAddr: 0x10000D7F4, symSize: 0x1C }
  - { offsetInCU: 0x4169, offset: 0x2CF85, size: 0x8, addend: 0x0, symName: __Z41__static_initialization_and_destruction_0ii, symObjAddr: 0xDF0, symBinAddr: 0x10000D794, symSize: 0x60 }
  - { offsetInCU: 0x4178, offset: 0x2CF94, size: 0x8, addend: 0x0, symName: __ZStneIcSt11char_traitsIcESaIcEEbRKNSt7__cxx1112basic_stringIT_T0_T1_EEPKS5_, symObjAddr: 0x984, symBinAddr: 0x10000D768, symSize: 0x2C }
  - { offsetInCU: 0x41CF, offset: 0x2CFEB, size: 0x8, addend: 0x0, symName: __ZN11Calorimeter8detectedER8Particle, symObjAddr: 0x700, symBinAddr: 0x10000D620, symSize: 0x148 }
  - { offsetInCU: 0x4208, offset: 0x2D024, size: 0x8, addend: 0x0, symName: __ZNK11Calorimeter12get_materialB5cxx11Ev, symObjAddr: 0x6C8, symBinAddr: 0x10000D5E8, symSize: 0x38 }
  - { offsetInCU: 0x4230, offset: 0x2D04C, size: 0x8, addend: 0x0, symName: __ZNK11Calorimeter17get_detector_typeB5cxx11Ev, symObjAddr: 0x690, symBinAddr: 0x10000D5B0, symSize: 0x38 }
  - { offsetInCU: 0x4258, offset: 0x2D074, size: 0x8, addend: 0x0, symName: __ZNK11Calorimeter14print_detectorEv, symObjAddr: 0x5F8, symBinAddr: 0x10000D518, symSize: 0x98 }
  - { offsetInCU: 0x42B2, offset: 0x2D0CE, size: 0x8, addend: 0x0, symName: __ZN11CalorimeterD0Ev, symObjAddr: 0x5D0, symBinAddr: 0x10000D4F0, symSize: 0x28 }
  - { offsetInCU: 0x42DA, offset: 0x2D0F6, size: 0x8, addend: 0x0, symName: __ZN11CalorimeterD1Ev, symObjAddr: 0x5A0, symBinAddr: 0x10000D4C0, symSize: 0x30 }
  - { offsetInCU: 0x4302, offset: 0x2D11E, size: 0x8, addend: 0x0, symName: __ZN11CalorimeterD2Ev, symObjAddr: 0x570, symBinAddr: 0x10000D490, symSize: 0x30 }
  - { offsetInCU: 0x438A, offset: 0x2D1A6, size: 0x8, addend: 0x0, symName: __ZN11CalorimeterC1ENSt7__cxx1112basic_stringIcSt11char_traitsIcESaIcEEEi, symObjAddr: 0x42C, symBinAddr: 0x10000D34C, symSize: 0x144 }
  - { offsetInCU: 0x43C6, offset: 0x2D1E2, size: 0x8, addend: 0x0, symName: __ZN11CalorimeterC2ENSt7__cxx1112basic_stringIcSt11char_traitsIcESaIcEEEi, symObjAddr: 0x2E8, symBinAddr: 0x10000D208, symSize: 0x144 }
  - { offsetInCU: 0x43E2, offset: 0x2D1FE, size: 0x8, addend: 0x0, symName: __ZN11CalorimeterC1Ev, symObjAddr: 0x1F0, symBinAddr: 0x10000D110, symSize: 0xF8 }
  - { offsetInCU: 0x440B, offset: 0x2D227, size: 0x8, addend: 0x0, symName: __ZN11CalorimeterC2Ev, symObjAddr: 0xF8, symBinAddr: 0x10000D018, symSize: 0xF8 }
  - { offsetInCU: 0x3C63, offset: 0x30E96, size: 0x8, addend: 0x0, symName: __ZStL8__ioinit, symObjAddr: 0x29FE0, symBinAddr: 0x100024004, symSize: 0x0 }
  - { offsetInCU: 0x4110, offset: 0x31343, size: 0x8, addend: 0x0, symName: __GLOBAL__sub_I_MuonChamber.cpp, symObjAddr: 0xE28, symBinAddr: 0x10000DFC0, symSize: 0x1C }
  - { offsetInCU: 0x4132, offset: 0x31365, size: 0x8, addend: 0x0, symName: __Z41__static_initialization_and_destruction_0ii, symObjAddr: 0xDC8, symBinAddr: 0x10000DF60, symSize: 0x60 }
  - { offsetInCU: 0x4145, offset: 0x31378, size: 0x8, addend: 0x0, symName: __ZN11MuonChamber8detectedER8Particle, symObjAddr: 0x700, symBinAddr: 0x10000DE18, symSize: 0x148 }
  - { offsetInCU: 0x417E, offset: 0x313B1, size: 0x8, addend: 0x0, symName: __ZNK11MuonChamber12get_materialB5cxx11Ev, symObjAddr: 0x6C8, symBinAddr: 0x10000DDE0, symSize: 0x38 }
  - { offsetInCU: 0x41A6, offset: 0x313D9, size: 0x8, addend: 0x0, symName: __ZNK11MuonChamber17get_detector_typeB5cxx11Ev, symObjAddr: 0x690, symBinAddr: 0x10000DDA8, symSize: 0x38 }
  - { offsetInCU: 0x41CE, offset: 0x31401, size: 0x8, addend: 0x0, symName: __ZNK11MuonChamber14print_detectorEv, symObjAddr: 0x5F8, symBinAddr: 0x10000DD10, symSize: 0x98 }
  - { offsetInCU: 0x4228, offset: 0x3145B, size: 0x8, addend: 0x0, symName: __ZN11MuonChamberD0Ev, symObjAddr: 0x5D0, symBinAddr: 0x10000DCE8, symSize: 0x28 }
  - { offsetInCU: 0x4250, offset: 0x31483, size: 0x8, addend: 0x0, symName: __ZN11MuonChamberD1Ev, symObjAddr: 0x5A0, symBinAddr: 0x10000DCB8, symSize: 0x30 }
  - { offsetInCU: 0x4278, offset: 0x314AB, size: 0x8, addend: 0x0, symName: __ZN11MuonChamberD2Ev, symObjAddr: 0x570, symBinAddr: 0x10000DC88, symSize: 0x30 }
  - { offsetInCU: 0x4300, offset: 0x31533, size: 0x8, addend: 0x0, symName: __ZN11MuonChamberC1ENSt7__cxx1112basic_stringIcSt11char_traitsIcESaIcEEEi, symObjAddr: 0x42C, symBinAddr: 0x10000DB44, symSize: 0x144 }
  - { offsetInCU: 0x433C, offset: 0x3156F, size: 0x8, addend: 0x0, symName: __ZN11MuonChamberC2ENSt7__cxx1112basic_stringIcSt11char_traitsIcESaIcEEEi, symObjAddr: 0x2E8, symBinAddr: 0x10000DA00, symSize: 0x144 }
  - { offsetInCU: 0x4358, offset: 0x3158B, size: 0x8, addend: 0x0, symName: __ZN11MuonChamberC1Ev, symObjAddr: 0x1F0, symBinAddr: 0x10000D908, symSize: 0xF8 }
  - { offsetInCU: 0x4381, offset: 0x315B4, size: 0x8, addend: 0x0, symName: __ZN11MuonChamberC2Ev, symObjAddr: 0xF8, symBinAddr: 0x10000D810, symSize: 0xF8 }
  - { offsetInCU: 0x19E9, offset: 0x32FA9, size: 0x8, addend: 0x0, symName: __ZStL8__ioinit, symObjAddr: 0x1FF10, symBinAddr: 0x100024005, symSize: 0x0 }
  - { offsetInCU: 0x1BDE, offset: 0x3319E, size: 0x8, addend: 0x0, symName: __GLOBAL__sub_I_FourMomentum.cpp, symObjAddr: 0x7F0, symBinAddr: 0x10000E724, symSize: 0x1C }
  - { offsetInCU: 0x1BFF, offset: 0x331BF, size: 0x8, addend: 0x0, symName: __Z41__static_initialization_and_destruction_0ii, symObjAddr: 0x790, symBinAddr: 0x10000E6C4, symSize: 0x60 }
  - { offsetInCU: 0x1C21, offset: 0x331E1, size: 0x8, addend: 0x0, symName: __ZNK12FourMomentumixEm, symObjAddr: 0x620, symBinAddr: 0x10000E5FC, symSize: 0xC8 }
  - { offsetInCU: 0x1C74, offset: 0x33234, size: 0x8, addend: 0x0, symName: __ZlsRSoRK12FourMomentum, symObjAddr: 0x554, symBinAddr: 0x10000E530, symSize: 0xCC }
  - { offsetInCU: 0x1CBA, offset: 0x3327A, size: 0x8, addend: 0x0, symName: __ZmldRK12FourMomentum, symObjAddr: 0x4D8, symBinAddr: 0x10000E4B4, symSize: 0x7C }
  - { offsetInCU: 0x1CE6, offset: 0x332A6, size: 0x8, addend: 0x0, symName: __ZNK12FourMomentummlEd, symObjAddr: 0x45C, symBinAddr: 0x10000E438, symSize: 0x7C }
  - { offsetInCU: 0x1D21, offset: 0x332E1, size: 0x8, addend: 0x0, symName: __ZNK12FourMomentummlERKS_, symObjAddr: 0x3E4, symBinAddr: 0x10000E3C0, symSize: 0x78 }
  - { offsetInCU: 0x1D6C, offset: 0x3332C, size: 0x8, addend: 0x0, symName: __ZNK12FourMomentumdvEd, symObjAddr: 0x310, symBinAddr: 0x10000E2EC, symSize: 0xD4 }
  - { offsetInCU: 0x1DA7, offset: 0x33367, size: 0x8, addend: 0x0, symName: __ZNK12FourMomentummiERKS_, symObjAddr: 0x284, symBinAddr: 0x10000E260, symSize: 0x8C }
  - { offsetInCU: 0x1DE2, offset: 0x333A2, size: 0x8, addend: 0x0, symName: __ZNK12FourMomentumplERKS_, symObjAddr: 0x1F8, symBinAddr: 0x10000E1D4, symSize: 0x8C }
  - { offsetInCU: 0x1E51, offset: 0x33411, size: 0x8, addend: 0x0, symName: __ZN12FourMomentumD1Ev, symObjAddr: 0x1E4, symBinAddr: 0x10000E1C0, symSize: 0x14 }
  - { offsetInCU: 0x1E79, offset: 0x33439, size: 0x8, addend: 0x0, symName: __ZN12FourMomentumD2Ev, symObjAddr: 0x1D0, symBinAddr: 0x10000E1AC, symSize: 0x14 }
  - { offsetInCU: 0x1EEC, offset: 0x334AC, size: 0x8, addend: 0x0, symName: __ZN12FourMomentumC1Edddd, symObjAddr: 0x11C, symBinAddr: 0x10000E0F8, symSize: 0xB4 }
  - { offsetInCU: 0x1F34, offset: 0x334F4, size: 0x8, addend: 0x0, symName: __ZN12FourMomentumC2Edddd, symObjAddr: 0x68, symBinAddr: 0x10000E044, symSize: 0xB4 }
  - { offsetInCU: 0x1F91, offset: 0x33551, size: 0x8, addend: 0x0, symName: __ZN12FourMomentumC1Ev, symObjAddr: 0x34, symBinAddr: 0x10000E010, symSize: 0x34 }
  - { offsetInCU: 0x1FBA, offset: 0x3357A, size: 0x8, addend: 0x0, symName: __ZN12FourMomentumC2Ev, symObjAddr: 0x0, symBinAddr: 0x10000DFDC, symSize: 0x34 }
  - { offsetInCU: 0x4E28, offset: 0x383AB, size: 0x8, addend: 0x0, symName: __ZStL8__ioinit, symObjAddr: 0x2FF60, symBinAddr: 0x100024006, symSize: 0x0 }
  - { offsetInCU: 0x5359, offset: 0x388DC, size: 0x8, addend: 0x0, symName: __GLOBAL__sub_I_Particle.cpp, symObjAddr: 0xA74, symBinAddr: 0x10000F0E4, symSize: 0x1C }
  - { offsetInCU: 0x537E, offset: 0x38901, size: 0x8, addend: 0x0, symName: __Z41__static_initialization_and_destruction_0ii, symObjAddr: 0xA14, symBinAddr: 0x10000F084, symSize: 0x60 }
  - { offsetInCU: 0x538D, offset: 0x38910, size: 0x8, addend: 0x0, symName: __ZNSt10_Head_baseILm0EP12FourMomentumLb0EE7_M_headERKS2_, symObjAddr: 0x930, symBinAddr: 0x10000F070, symSize: 0x14 }
  - { offsetInCU: 0x53B4, offset: 0x38937, size: 0x8, addend: 0x0, symName: __ZNSt10_Head_baseILm1ESt14default_deleteI12FourMomentumELb1EE7_M_headERS3_, symObjAddr: 0x91C, symBinAddr: 0x10000F05C, symSize: 0x14 }
  - { offsetInCU: 0x5435, offset: 0x389B8, size: 0x8, addend: 0x0, symName: __ZNSt10_Head_baseILm1ESt14default_deleteI12FourMomentumELb1EEC2Ev, symObjAddr: 0x908, symBinAddr: 0x10000F048, symSize: 0x14 }
  - { offsetInCU: 0x5417, offset: 0x3899A, size: 0x8, addend: 0x0, symName: __ZNSt11_Tuple_implILm0EJP12FourMomentumSt14default_deleteIS0_EEE7_M_headERKS4_, symObjAddr: 0x8EC, symBinAddr: 0x10000F02C, symSize: 0x1C }
  - { offsetInCU: 0x543F, offset: 0x389C2, size: 0x8, addend: 0x0, symName: __ZNSt11_Tuple_implILm1EJSt14default_deleteI12FourMomentumEEE7_M_headERS3_, symObjAddr: 0x8D0, symBinAddr: 0x10000F010, symSize: 0x1C }
  - { offsetInCU: 0x5467, offset: 0x389EA, size: 0x8, addend: 0x0, symName: __ZNSt10_Head_baseILm0EP12FourMomentumLb0EE7_M_headERS2_, symObjAddr: 0x8BC, symBinAddr: 0x10000EFFC, symSize: 0x14 }
  - { offsetInCU: 0x54D5, offset: 0x38A58, size: 0x8, addend: 0x0, symName: __ZNSt10_Head_baseILm0EP12FourMomentumLb0EEC2Ev, symObjAddr: 0x8A0, symBinAddr: 0x10000EFE0, symSize: 0x1C }
  - { offsetInCU: 0x5523, offset: 0x38AA6, size: 0x8, addend: 0x0, symName: __ZNSt11_Tuple_implILm1EJSt14default_deleteI12FourMomentumEEEC2Ev, symObjAddr: 0x880, symBinAddr: 0x10000EFC0, symSize: 0x20 }
  - { offsetInCU: 0x5506, offset: 0x38A89, size: 0x8, addend: 0x0, symName: __ZSt12__get_helperILm0EP12FourMomentumJSt14default_deleteIS0_EEERKT0_RKSt11_Tuple_implIXT_EJS4_DpT1_EE, symObjAddr: 0x864, symBinAddr: 0x10000EFA4, symSize: 0x1C }
  - { offsetInCU: 0x554C, offset: 0x38ACF, size: 0x8, addend: 0x0, symName: __ZSt12__get_helperILm1ESt14default_deleteI12FourMomentumEJEERT0_RSt11_Tuple_implIXT_EJS3_DpT1_EE, symObjAddr: 0x848, symBinAddr: 0x10000EF88, symSize: 0x1C }
  - { offsetInCU: 0x558C, offset: 0x38B0F, size: 0x8, addend: 0x0, symName: __ZNSt11_Tuple_implILm0EJP12FourMomentumSt14default_deleteIS0_EEE7_M_headERS4_, symObjAddr: 0x82C, symBinAddr: 0x10000EF6C, symSize: 0x1C }
  - { offsetInCU: 0x5611, offset: 0x38B94, size: 0x8, addend: 0x0, symName: __ZNSt11_Tuple_implILm0EJP12FourMomentumSt14default_deleteIS0_EEEC2Ev, symObjAddr: 0x804, symBinAddr: 0x10000EF44, symSize: 0x28 }
  - { offsetInCU: 0x55F6, offset: 0x38B79, size: 0x8, addend: 0x0, symName: __ZSt3getILm0EJP12FourMomentumSt14default_deleteIS0_EEERKNSt13tuple_elementIXT_ESt5tupleIJDpT0_EEE4typeERKS8_, symObjAddr: 0x7E8, symBinAddr: 0x10000EF28, symSize: 0x1C }
  - { offsetInCU: 0x563E, offset: 0x38BC1, size: 0x8, addend: 0x0, symName: __ZSt3getILm1EJP12FourMomentumSt14default_deleteIS0_EEERNSt13tuple_elementIXT_ESt5tupleIJDpT0_EEE4typeERS8_, symObjAddr: 0x7CC, symBinAddr: 0x10000EF0C, symSize: 0x1C }
  - { offsetInCU: 0x5680, offset: 0x38C03, size: 0x8, addend: 0x0, symName: __ZSt12__get_helperILm0EP12FourMomentumJSt14default_deleteIS0_EEERT0_RSt11_Tuple_implIXT_EJS4_DpT1_EE, symObjAddr: 0x7B0, symBinAddr: 0x10000EEF0, symSize: 0x1C }
  - { offsetInCU: 0x572C, offset: 0x38CAF, size: 0x8, addend: 0x0, symName: __ZNSt5tupleIJP12FourMomentumSt14default_deleteIS0_EEEC1ILb1ELb1EEEv, symObjAddr: 0x790, symBinAddr: 0x10000EED0, symSize: 0x20 }
  - { offsetInCU: 0x571A, offset: 0x38C9D, size: 0x8, addend: 0x0, symName: __ZNKSt15__uniq_ptr_implI12FourMomentumSt14default_deleteIS0_EE6_M_ptrEv, symObjAddr: 0x770, symBinAddr: 0x10000EEB0, symSize: 0x20 }
  - { offsetInCU: 0x5742, offset: 0x38CC5, size: 0x8, addend: 0x0, symName: __ZNSt15__uniq_ptr_implI12FourMomentumSt14default_deleteIS0_EE10_M_deleterEv, symObjAddr: 0x754, symBinAddr: 0x10000EE94, symSize: 0x1C }
  - { offsetInCU: 0x576C, offset: 0x38CEF, size: 0x8, addend: 0x0, symName: __ZSt3getILm0EJP12FourMomentumSt14default_deleteIS0_EEERNSt13tuple_elementIXT_ESt5tupleIJDpT0_EEE4typeERS8_, symObjAddr: 0x738, symBinAddr: 0x10000EE78, symSize: 0x1C }
  - { offsetInCU: 0x5817, offset: 0x38D9A, size: 0x8, addend: 0x0, symName: __ZNSt15__uniq_ptr_implI12FourMomentumSt14default_deleteIS0_EEC2EPS0_, symObjAddr: 0x6FC, symBinAddr: 0x10000EE3C, symSize: 0x3C }
  - { offsetInCU: 0x5802, offset: 0x38D85, size: 0x8, addend: 0x0, symName: __ZNKSt10unique_ptrI12FourMomentumSt14default_deleteIS0_EE3getEv, symObjAddr: 0x6E0, symBinAddr: 0x10000EE20, symSize: 0x1C }
  - { offsetInCU: 0x582A, offset: 0x38DAD, size: 0x8, addend: 0x0, symName: __ZNKSt14default_deleteI12FourMomentumEclEPS0_, symObjAddr: 0x69C, symBinAddr: 0x10000EDDC, symSize: 0x44 }
  - { offsetInCU: 0x5863, offset: 0x38DE6, size: 0x8, addend: 0x0, symName: __ZSt4moveIRP12FourMomentumEONSt16remove_referenceIT_E4typeEOS4_, symObjAddr: 0x688, symBinAddr: 0x10000EDC8, symSize: 0x14 }
  - { offsetInCU: 0x5897, offset: 0x38E1A, size: 0x8, addend: 0x0, symName: __ZNSt10unique_ptrI12FourMomentumSt14default_deleteIS0_EE11get_deleterEv, symObjAddr: 0x66C, symBinAddr: 0x10000EDAC, symSize: 0x1C }
  - { offsetInCU: 0x58BF, offset: 0x38E42, size: 0x8, addend: 0x0, symName: __ZNSt15__uniq_ptr_implI12FourMomentumSt14default_deleteIS0_EE6_M_ptrEv, symObjAddr: 0x650, symBinAddr: 0x10000ED90, symSize: 0x1C }
  - { offsetInCU: 0x5957, offset: 0x38EDA, size: 0x8, addend: 0x0, symName: __ZNSt10unique_ptrI12FourMomentumSt14default_deleteIS0_EEC1IS2_vEEPS0_, symObjAddr: 0x628, symBinAddr: 0x10000ED68, symSize: 0x28 }
  - { offsetInCU: 0x59D0, offset: 0x38F53, size: 0x8, addend: 0x0, symName: __ZNSt15__uniq_ptr_dataI12FourMomentumSt14default_deleteIS0_ELb1ELb1EECI1St15__uniq_ptr_implIS0_S2_EEPS0_, symObjAddr: 0x600, symBinAddr: 0x10000ED40, symSize: 0x28 }
  - { offsetInCU: 0x5999, offset: 0x38F1C, size: 0x8, addend: 0x0, symName: __ZSt7forwardIRdEOT_RNSt16remove_referenceIS1_E4typeE, symObjAddr: 0x5EC, symBinAddr: 0x10000ED2C, symSize: 0x14 }
  - { offsetInCU: 0x59CD, offset: 0x38F50, size: 0x8, addend: 0x0, symName: __ZNKSt10unique_ptrI12FourMomentumSt14default_deleteIS0_EEdeEv, symObjAddr: 0x5C0, symBinAddr: 0x10000ED00, symSize: 0x2C }
  - { offsetInCU: 0x59F5, offset: 0x38F78, size: 0x8, addend: 0x0, symName: __ZNKSt6vectorIdSaIdEE4sizeEv, symObjAddr: 0x598, symBinAddr: 0x10000ECD8, symSize: 0x28 }
  - { offsetInCU: 0x5A87, offset: 0x3900A, size: 0x8, addend: 0x0, symName: __ZNSt10unique_ptrI12FourMomentumSt14default_deleteIS0_EED1Ev, symObjAddr: 0x530, symBinAddr: 0x10000EC70, symSize: 0x68 }
  - { offsetInCU: 0x5A9B, offset: 0x3901E, size: 0x8, addend: 0x0, symName: __ZSt11make_uniqueI12FourMomentumJRdS1_S1_S1_EENSt9_MakeUniqIT_E15__single_objectEDpOT0_, symObjAddr: 0x474, symBinAddr: 0x10000EBB4, symSize: 0xBC }
  - { offsetInCU: 0x5B01, offset: 0x39084, size: 0x8, addend: 0x0, symName: __ZNSt6vectorIdSaIdEEixEm, symObjAddr: 0x44C, symBinAddr: 0x10000EB8C, symSize: 0x28 }
  - { offsetInCU: 0x5B39, offset: 0x390BC, size: 0x8, addend: 0x0, symName: __ZNK8Particle12get_momentumEv, symObjAddr: 0x40C, symBinAddr: 0x10000EB4C, symSize: 0x40 }
  - { offsetInCU: 0x5B61, offset: 0x390E4, size: 0x8, addend: 0x0, symName: __ZNK8Particle13get_rest_massEv, symObjAddr: 0x3F4, symBinAddr: 0x10000EB34, symSize: 0x18 }
  - { offsetInCU: 0x5B89, offset: 0x3910C, size: 0x8, addend: 0x0, symName: __ZNK8Particle10get_chargeEv, symObjAddr: 0x3DC, symBinAddr: 0x10000EB1C, symSize: 0x18 }
  - { offsetInCU: 0x5BB1, offset: 0x39134, size: 0x8, addend: 0x0, symName: __ZNK8Particle17get_particle_typeB5cxx11Ev, symObjAddr: 0x3A4, symBinAddr: 0x10000EAE4, symSize: 0x38 }
  - { offsetInCU: 0x5BD9, offset: 0x3915C, size: 0x8, addend: 0x0, symName: __ZN8Particle12set_momentumESt10unique_ptrI12FourMomentumSt14default_deleteIS1_EE, symObjAddr: 0x35C, symBinAddr: 0x10000EA9C, symSize: 0x48 }
  - { offsetInCU: 0x5C11, offset: 0x39194, size: 0x8, addend: 0x0, symName: __ZN8Particle13set_rest_massEd, symObjAddr: 0x338, symBinAddr: 0x10000EA78, symSize: 0x24 }
  - { offsetInCU: 0x5C48, offset: 0x391CB, size: 0x8, addend: 0x0, symName: __ZN8Particle10set_chargeEd, symObjAddr: 0x314, symBinAddr: 0x10000EA54, symSize: 0x24 }
  - { offsetInCU: 0x5C7F, offset: 0x39202, size: 0x8, addend: 0x0, symName: __ZN8Particle17set_particle_typeENSt7__cxx1112basic_stringIcSt11char_traitsIcESaIcEEE, symObjAddr: 0x2E8, symBinAddr: 0x10000EA28, symSize: 0x2C }
  - { offsetInCU: 0x5D5F, offset: 0x392E2, size: 0x8, addend: 0x0, symName: __ZN8ParticleC1EiNSt7__cxx1112basic_stringIcSt11char_traitsIcESaIcEEEddSt6vectorIdSaIdEE, symObjAddr: 0x174, symBinAddr: 0x10000E8B4, symSize: 0x174 }
  - { offsetInCU: 0x5DB2, offset: 0x39335, size: 0x8, addend: 0x0, symName: __ZN8ParticleC2EiNSt7__cxx1112basic_stringIcSt11char_traitsIcESaIcEEEddSt6vectorIdSaIdEE, symObjAddr: 0x0, symBinAddr: 0x10000E740, symSize: 0x174 }
  - { offsetInCU: 0x50C3, offset: 0x3E3E9, size: 0x8, addend: 0x0, symName: __ZStL8__ioinit, symObjAddr: 0x38858, symBinAddr: 0x100024007, symSize: 0x0 }
  - { offsetInCU: 0x565B, offset: 0x3E981, size: 0x8, addend: 0x0, symName: __GLOBAL__sub_I_Electron.cpp, symObjAddr: 0x1D64, symBinAddr: 0x10000FC88, symSize: 0x1C }
  - { offsetInCU: 0x5680, offset: 0x3E9A6, size: 0x8, addend: 0x0, symName: __Z41__static_initialization_and_destruction_0ii, symObjAddr: 0x1D04, symBinAddr: 0x10000FC28, symSize: 0x60 }
  - { offsetInCU: 0x5693, offset: 0x3E9B9, size: 0x8, addend: 0x0, symName: __ZNK9__gnu_cxx17__normal_iteratorIPKdSt6vectorIdSaIdEEE4baseEv, symObjAddr: 0x1A08, symBinAddr: 0x10000FC14, symSize: 0x14 }
  - { offsetInCU: 0x56B7, offset: 0x3E9DD, size: 0x8, addend: 0x0, symName: __ZSt12__niter_baseIPKdSt6vectorIdSaIdEEET_N9__gnu_cxx17__normal_iteratorIS5_T0_EE, symObjAddr: 0x1968, symBinAddr: 0x10000FBF4, symSize: 0x20 }
  - { offsetInCU: 0x56F1, offset: 0x3EA17, size: 0x8, addend: 0x0, symName: __ZSt13__copy_move_aILb0EN9__gnu_cxx17__normal_iteratorIPKdSt6vectorIdSaIdEEEEPdET1_T0_SA_S9_, symObjAddr: 0x1864, symBinAddr: 0x10000FB94, symSize: 0x60 }
  - { offsetInCU: 0x5755, offset: 0x3EA7B, size: 0x8, addend: 0x0, symName: __ZSt12__miter_baseIN9__gnu_cxx17__normal_iteratorIPKdSt6vectorIdSaIdEEEEET_S8_, symObjAddr: 0x1850, symBinAddr: 0x10000FB80, symSize: 0x14 }
  - { offsetInCU: 0x5786, offset: 0x3EAAC, size: 0x8, addend: 0x0, symName: __ZSt4copyIN9__gnu_cxx17__normal_iteratorIPKdSt6vectorIdSaIdEEEEPdET0_T_SA_S9_, symObjAddr: 0x1758, symBinAddr: 0x10000FB38, symSize: 0x48 }
  - { offsetInCU: 0x57E0, offset: 0x3EB06, size: 0x8, addend: 0x0, symName: __ZNSt20__uninitialized_copyILb1EE13__uninit_copyIN9__gnu_cxx17__normal_iteratorIPKdSt6vectorIdSaIdEEEEPdEET0_T_SC_SB_, symObjAddr: 0x1584, symBinAddr: 0x10000FB0C, symSize: 0x2C }
  - { offsetInCU: 0x5837, offset: 0x3EB5D, size: 0x8, addend: 0x0, symName: __ZSt18uninitialized_copyIN9__gnu_cxx17__normal_iteratorIPKdSt6vectorIdSaIdEEEEPdET0_T_SA_S9_, symObjAddr: 0x13A0, symBinAddr: 0x10000FAD8, symSize: 0x34 }
  - { offsetInCU: 0x5902, offset: 0x3EC28, size: 0x8, addend: 0x0, symName: __ZN9__gnu_cxx17__normal_iteratorIPKdSt6vectorIdSaIdEEEC1ERKS2_, symObjAddr: 0x1378, symBinAddr: 0x10000FAB0, symSize: 0x28 }
  - { offsetInCU: 0x58F3, offset: 0x3EC19, size: 0x8, addend: 0x0, symName: __ZNSt12_Vector_baseIdSaIdEE17_M_create_storageEm, symObjAddr: 0x1318, symBinAddr: 0x10000FA50, symSize: 0x60 }
  - { offsetInCU: 0x5927, offset: 0x3EC4D, size: 0x8, addend: 0x0, symName: __ZNSt16allocator_traitsISaIdEE37select_on_container_copy_constructionERKS0_, symObjAddr: 0x12E8, symBinAddr: 0x10000FA20, symSize: 0x30 }
  - { offsetInCU: 0x594F, offset: 0x3EC75, size: 0x8, addend: 0x0, symName: __ZSt22__uninitialized_copy_aIN9__gnu_cxx17__normal_iteratorIPKdSt6vectorIdSaIdEEEEPddET0_T_SA_S9_RSaIT1_E, symObjAddr: 0x1054, symBinAddr: 0x10000F9F0, symSize: 0x30 }
  - { offsetInCU: 0x59BE, offset: 0x3ECE4, size: 0x8, addend: 0x0, symName: __ZNKSt6vectorIdSaIdEE3endEv, symObjAddr: 0x102C, symBinAddr: 0x10000F9C8, symSize: 0x28 }
  - { offsetInCU: 0x59E6, offset: 0x3ED0C, size: 0x8, addend: 0x0, symName: __ZNKSt6vectorIdSaIdEE5beginEv, symObjAddr: 0x1008, symBinAddr: 0x10000F9A4, symSize: 0x24 }
  - { offsetInCU: 0x5A61, offset: 0x3ED87, size: 0x8, addend: 0x0, symName: __ZNSt12_Vector_baseIdSaIdEEC2EmRKS0_, symObjAddr: 0xFB4, symBinAddr: 0x10000F950, symSize: 0x54 }
  - { offsetInCU: 0x5A74, offset: 0x3ED9A, size: 0x8, addend: 0x0, symName: __ZNKSt12_Vector_baseIdSaIdEE19_M_get_Tp_allocatorEv, symObjAddr: 0xFA0, symBinAddr: 0x10000F93C, symSize: 0x14 }
  - { offsetInCU: 0x5A98, offset: 0x3EDBE, size: 0x8, addend: 0x0, symName: __ZN9__gnu_cxx14__alloc_traitsISaIdEdE17_S_select_on_copyERKS1_, symObjAddr: 0xF70, symBinAddr: 0x10000F90C, symSize: 0x30 }
  - { offsetInCU: 0x5B01, offset: 0x3EE27, size: 0x8, addend: 0x0, symName: __ZNSt6vectorIdSaIdEEC1ERKS1_, symObjAddr: 0xA2C, symBinAddr: 0x10000F828, symSize: 0xE4 }
  - { offsetInCU: 0x5B14, offset: 0x3EE3A, size: 0x8, addend: 0x0, symName: __ZNK8Electron14print_particleEv, symObjAddr: 0x654, symBinAddr: 0x10000F714, symSize: 0x114 }
  - { offsetInCU: 0x5B6A, offset: 0x3EE90, size: 0x8, addend: 0x0, symName: __ZN8ElectronD0Ev, symObjAddr: 0x62C, symBinAddr: 0x10000F6EC, symSize: 0x28 }
  - { offsetInCU: 0x5B92, offset: 0x3EEB8, size: 0x8, addend: 0x0, symName: __ZN8ElectronD1Ev, symObjAddr: 0x5FC, symBinAddr: 0x10000F6BC, symSize: 0x30 }
  - { offsetInCU: 0x5BBA, offset: 0x3EEE0, size: 0x8, addend: 0x0, symName: __ZN8ElectronD2Ev, symObjAddr: 0x5CC, symBinAddr: 0x10000F68C, symSize: 0x30 }
  - { offsetInCU: 0x5C2C, offset: 0x3EF52, size: 0x8, addend: 0x0, symName: __ZN8ElectronC1EiSt6vectorIdSaIdEEb, symObjAddr: 0x4AC, symBinAddr: 0x10000F56C, symSize: 0x120 }
  - { offsetInCU: 0x5C71, offset: 0x3EF97, size: 0x8, addend: 0x0, symName: __ZN8ElectronC2EiSt6vectorIdSaIdEEb, symObjAddr: 0x38C, symBinAddr: 0x10000F44C, symSize: 0x120 }
  - { offsetInCU: 0x5CD1, offset: 0x3EFF7, size: 0x8, addend: 0x0, symName: __ZN8ElectronC1Eib, symObjAddr: 0x208, symBinAddr: 0x10000F2C8, symSize: 0x184 }
  - { offsetInCU: 0x5D0C, offset: 0x3F032, size: 0x8, addend: 0x0, symName: __ZN8ElectronC2Eib, symObjAddr: 0x84, symBinAddr: 0x10000F144, symSize: 0x184 }
  - { offsetInCU: 0x5D63, offset: 0x3F089, size: 0x8, addend: 0x0, symName: __ZN8ParticleD2Ev, symObjAddr: 0x40, symBinAddr: 0x10000F100, symSize: 0x44 }
  - { offsetInCU: 0x4897, offset: 0x4392F, size: 0x8, addend: 0x0, symName: __ZStL8__ioinit, symObjAddr: 0x38808, symBinAddr: 0x100024008, symSize: 0x0 }
  - { offsetInCU: 0x4D8B, offset: 0x43E23, size: 0x8, addend: 0x0, symName: __GLOBAL__sub_I_Muon.cpp, symObjAddr: 0x1D5C, symBinAddr: 0x1000103F8, symSize: 0x1C }
  - { offsetInCU: 0x4DB4, offset: 0x43E4C, size: 0x8, addend: 0x0, symName: __Z41__static_initialization_and_destruction_0ii, symObjAddr: 0x1CFC, symBinAddr: 0x100010398, symSize: 0x60 }
  - { offsetInCU: 0x4DC7, offset: 0x43E5F, size: 0x8, addend: 0x0, symName: __ZNK4Muon14print_particleEv, symObjAddr: 0x664, symBinAddr: 0x100010284, symSize: 0x114 }
  - { offsetInCU: 0x4E19, offset: 0x43EB1, size: 0x8, addend: 0x0, symName: __ZN4MuonD0Ev, symObjAddr: 0x63C, symBinAddr: 0x10001025C, symSize: 0x28 }
  - { offsetInCU: 0x4E41, offset: 0x43ED9, size: 0x8, addend: 0x0, symName: __ZN4MuonD1Ev, symObjAddr: 0x60C, symBinAddr: 0x10001022C, symSize: 0x30 }
  - { offsetInCU: 0x4E69, offset: 0x43F01, size: 0x8, addend: 0x0, symName: __ZN4MuonD2Ev, symObjAddr: 0x5DC, symBinAddr: 0x1000101FC, symSize: 0x30 }
  - { offsetInCU: 0x4EDB, offset: 0x43F73, size: 0x8, addend: 0x0, symName: __ZN4MuonC1EiSt6vectorIdSaIdEEb, symObjAddr: 0x4B8, symBinAddr: 0x1000100D8, symSize: 0x124 }
  - { offsetInCU: 0x4F20, offset: 0x43FB8, size: 0x8, addend: 0x0, symName: __ZN4MuonC2EiSt6vectorIdSaIdEEb, symObjAddr: 0x394, symBinAddr: 0x10000FFB4, symSize: 0x124 }
  - { offsetInCU: 0x4F80, offset: 0x44018, size: 0x8, addend: 0x0, symName: __ZN4MuonC1Eib, symObjAddr: 0x20C, symBinAddr: 0x10000FE2C, symSize: 0x188 }
  - { offsetInCU: 0x4FBB, offset: 0x44053, size: 0x8, addend: 0x0, symName: __ZN4MuonC2Eib, symObjAddr: 0x84, symBinAddr: 0x10000FCA4, symSize: 0x188 }
  - { offsetInCU: 0x4897, offset: 0x4890F, size: 0x8, addend: 0x0, symName: __ZStL8__ioinit, symObjAddr: 0x38540, symBinAddr: 0x100024009, symSize: 0x0 }
  - { offsetInCU: 0x4D83, offset: 0x48DFB, size: 0x8, addend: 0x0, symName: __GLOBAL__sub_I_Photon.cpp, symObjAddr: 0x1BF4, symBinAddr: 0x100010A24, symSize: 0x1C }
  - { offsetInCU: 0x4DAA, offset: 0x48E22, size: 0x8, addend: 0x0, symName: __Z41__static_initialization_and_destruction_0ii, symObjAddr: 0x1B94, symBinAddr: 0x1000109C4, symSize: 0x60 }
  - { offsetInCU: 0x4DBD, offset: 0x48E35, size: 0x8, addend: 0x0, symName: __ZNK6Photon14print_particleEv, symObjAddr: 0x544, symBinAddr: 0x1000108D4, symSize: 0xF0 }
  - { offsetInCU: 0x4E11, offset: 0x48E89, size: 0x8, addend: 0x0, symName: __ZN6PhotonD0Ev, symObjAddr: 0x51C, symBinAddr: 0x1000108AC, symSize: 0x28 }
  - { offsetInCU: 0x4E39, offset: 0x48EB1, size: 0x8, addend: 0x0, symName: __ZN6PhotonD1Ev, symObjAddr: 0x4EC, symBinAddr: 0x10001087C, symSize: 0x30 }
  - { offsetInCU: 0x4E61, offset: 0x48ED9, size: 0x8, addend: 0x0, symName: __ZN6PhotonD2Ev, symObjAddr: 0x4BC, symBinAddr: 0x10001084C, symSize: 0x30 }
  - { offsetInCU: 0x4EC6, offset: 0x48F3E, size: 0x8, addend: 0x0, symName: __ZN6PhotonC1EiSt6vectorIdSaIdEE, symObjAddr: 0x3E0, symBinAddr: 0x100010770, symSize: 0xDC }
  - { offsetInCU: 0x4F02, offset: 0x48F7A, size: 0x8, addend: 0x0, symName: __ZN6PhotonC2EiSt6vectorIdSaIdEE, symObjAddr: 0x304, symBinAddr: 0x100010694, symSize: 0xDC }
  - { offsetInCU: 0x4F4D, offset: 0x48FC5, size: 0x8, addend: 0x0, symName: __ZN6PhotonC1Ei, symObjAddr: 0x1C4, symBinAddr: 0x100010554, symSize: 0x140 }
  - { offsetInCU: 0x4F7F, offset: 0x48FF7, size: 0x8, addend: 0x0, symName: __ZN6PhotonC2Ei, symObjAddr: 0x84, symBinAddr: 0x100010414, symSize: 0x140 }
  - { offsetInCU: 0x4897, offset: 0x4D8A9, size: 0x8, addend: 0x0, symName: __ZStL8__ioinit, symObjAddr: 0x38818, symBinAddr: 0x10002400A, symSize: 0x0 }
  - { offsetInCU: 0x4D8D, offset: 0x4DD9F, size: 0x8, addend: 0x0, symName: __GLOBAL__sub_I_Proton.cpp, symObjAddr: 0x1D64, symBinAddr: 0x100011194, symSize: 0x1C }
  - { offsetInCU: 0x4DB4, offset: 0x4DDC6, size: 0x8, addend: 0x0, symName: __Z41__static_initialization_and_destruction_0ii, symObjAddr: 0x1D04, symBinAddr: 0x100011134, symSize: 0x60 }
  - { offsetInCU: 0x4DC7, offset: 0x4DDD9, size: 0x8, addend: 0x0, symName: __ZNK6Proton14print_particleEv, symObjAddr: 0x664, symBinAddr: 0x100011020, symSize: 0x114 }
  - { offsetInCU: 0x4E1B, offset: 0x4DE2D, size: 0x8, addend: 0x0, symName: __ZN6ProtonD0Ev, symObjAddr: 0x63C, symBinAddr: 0x100010FF8, symSize: 0x28 }
  - { offsetInCU: 0x4E43, offset: 0x4DE55, size: 0x8, addend: 0x0, symName: __ZN6ProtonD1Ev, symObjAddr: 0x60C, symBinAddr: 0x100010FC8, symSize: 0x30 }
  - { offsetInCU: 0x4E6B, offset: 0x4DE7D, size: 0x8, addend: 0x0, symName: __ZN6ProtonD2Ev, symObjAddr: 0x5DC, symBinAddr: 0x100010F98, symSize: 0x30 }
  - { offsetInCU: 0x4EDD, offset: 0x4DEEF, size: 0x8, addend: 0x0, symName: __ZN6ProtonC1EiSt6vectorIdSaIdEEb, symObjAddr: 0x4B8, symBinAddr: 0x100010E74, symSize: 0x124 }
  - { offsetInCU: 0x4F22, offset: 0x4DF34, size: 0x8, addend: 0x0, symName: __ZN6ProtonC2EiSt6vectorIdSaIdEEb, symObjAddr: 0x394, symBinAddr: 0x100010D50, symSize: 0x124 }
  - { offsetInCU: 0x4F82, offset: 0x4DF94, size: 0x8, addend: 0x0, symName: __ZN6ProtonC1Eib, symObjAddr: 0x20C, symBinAddr: 0x100010BC8, symSize: 0x188 }
  - { offsetInCU: 0x4FBD, offset: 0x4DFCF, size: 0x8, addend: 0x0, symName: __ZN6ProtonC2Eib, symObjAddr: 0x84, symBinAddr: 0x100010A40, symSize: 0x188 }
  - { offsetInCU: 0x4897, offset: 0x52889, size: 0x8, addend: 0x0, symName: __ZStL8__ioinit, symObjAddr: 0x389C0, symBinAddr: 0x10002400B, symSize: 0x0 }
  - { offsetInCU: 0x4D8E, offset: 0x52D80, size: 0x8, addend: 0x0, symName: __GLOBAL__sub_I_Neutron.cpp, symObjAddr: 0x1D24, symBinAddr: 0x100011890, symSize: 0x1C }
  - { offsetInCU: 0x4DB4, offset: 0x52DA6, size: 0x8, addend: 0x0, symName: __Z41__static_initialization_and_destruction_0ii, symObjAddr: 0x1CC4, symBinAddr: 0x100011830, symSize: 0x60 }
  - { offsetInCU: 0x4DC7, offset: 0x52DB9, size: 0x8, addend: 0x0, symName: __ZNK7Neutron14print_particleEv, symObjAddr: 0x5E4, symBinAddr: 0x100011710, symSize: 0x120 }
  - { offsetInCU: 0x4E1C, offset: 0x52E0E, size: 0x8, addend: 0x0, symName: __ZN7NeutronD0Ev, symObjAddr: 0x5BC, symBinAddr: 0x1000116E8, symSize: 0x28 }
  - { offsetInCU: 0x4E44, offset: 0x52E36, size: 0x8, addend: 0x0, symName: __ZN7NeutronD1Ev, symObjAddr: 0x58C, symBinAddr: 0x1000116B8, symSize: 0x30 }
  - { offsetInCU: 0x4E6C, offset: 0x52E5E, size: 0x8, addend: 0x0, symName: __ZN7NeutronD2Ev, symObjAddr: 0x55C, symBinAddr: 0x100011688, symSize: 0x30 }
  - { offsetInCU: 0x4EDE, offset: 0x52ED0, size: 0x8, addend: 0x0, symName: __ZN7NeutronC1EiSt6vectorIdSaIdEEb, symObjAddr: 0x458, symBinAddr: 0x100011584, symSize: 0x104 }
  - { offsetInCU: 0x4F23, offset: 0x52F15, size: 0x8, addend: 0x0, symName: __ZN7NeutronC2EiSt6vectorIdSaIdEEb, symObjAddr: 0x354, symBinAddr: 0x100011480, symSize: 0x104 }
  - { offsetInCU: 0x4F83, offset: 0x52F75, size: 0x8, addend: 0x0, symName: __ZN7NeutronC1Eib, symObjAddr: 0x1EC, symBinAddr: 0x100011318, symSize: 0x168 }
  - { offsetInCU: 0x4FBE, offset: 0x52FB0, size: 0x8, addend: 0x0, symName: __ZN7NeutronC2Eib, symObjAddr: 0x84, symBinAddr: 0x1000111B0, symSize: 0x168 }
...
